
BL_CH582M.elf:     file format elf32-littleriscv
BL_CH582M.elf
architecture: riscv:rv32, flags 0x00000112:
EXEC_P, HAS_SYMS, D_PAGED
start address 0x00000000

Program Header:
    LOAD off    0x00001000 vaddr 0x00000000 paddr 0x00000000 align 2**12
         filesz 0x00000004 memsz 0x00000004 flags r-x
    LOAD off    0x00002000 vaddr 0x20000000 paddr 0x00000004 align 2**12
         filesz 0x00000ac4 memsz 0x00000ac4 flags r-x
    LOAD off    0x00002ac8 vaddr 0x00000ac8 paddr 0x00000ac8 align 2**12
         filesz 0x0000377c memsz 0x0000377c flags r-x
    LOAD off    0x00006ac4 vaddr 0x20000ac4 paddr 0x00004244 align 2**12
         filesz 0x0000121c memsz 0x00001e88 flags rw-

Sections:
Idx Name            Size      VMA       LMA       File off  Algn  Flags
  0 .init           00000004  00000000  00000000  00001000  2**1  CONTENTS, ALLOC, LOAD, READONLY, CODE
  1 .highcodelalign 00000000  00000004  00000004  00007ce0  2**0  CONTENTS
  2 .highcode       00000ac4  20000000  00000004  00002000  2**1  CONTENTS, ALLOC, LOAD, READONLY, CODE
  3 .text           0000377c  00000ac8  00000ac8  00002ac8  2**2  CONTENTS, ALLOC, LOAD, READONLY, CODE
  4 .fini           00000000  00004244  00004244  00007ce0  2**0  CONTENTS, ALLOC, LOAD, CODE
  5 .dalign         00000000  20000ac4  20000ac4  00007ce0  2**0  CONTENTS
  6 .dlalign        00000000  00004244  00004244  00007ce0  2**0  CONTENTS
  7 .data           000000b4  20000ac4  00004244  00006ac4  2**2  CONTENTS, ALLOC, LOAD, DATA
  8 .noncacheable   00001168  20000b78  000042f8  00006b78  2**2  CONTENTS, ALLOC, LOAD, DATA
  9 .bss            00000c6c  20001ce0  00005460  00007ce0  2**2  ALLOC
 10 .stack          00000000  20007ffc  20007ffc  00007ce0  2**0  CONTENTS
 11 .debug_info     0000d00c  00000000  00000000  00007ce0  2**0  CONTENTS, READONLY, DEBUGGING
 12 .debug_abbrev   000026b4  00000000  00000000  00014cec  2**0  CONTENTS, READONLY, DEBUGGING
 13 .debug_loc      000030a4  00000000  00000000  000173a0  2**0  CONTENTS, READONLY, DEBUGGING
 14 .debug_aranges  00000408  00000000  00000000  0001a448  2**3  CONTENTS, READONLY, DEBUGGING
 15 .debug_ranges   00000940  00000000  00000000  0001a850  2**3  CONTENTS, READONLY, DEBUGGING
 16 .debug_line     000079d5  00000000  00000000  0001b190  2**0  CONTENTS, READONLY, DEBUGGING
 17 .debug_str      000026eb  00000000  00000000  00022b65  2**0  CONTENTS, READONLY, DEBUGGING
 18 .comment        00000033  00000000  00000000  00025250  2**0  CONTENTS, READONLY
 19 .debug_frame    00001340  00000000  00000000  00025284  2**2  CONTENTS, READONLY, DEBUGGING
 20 .stab           00000084  00000000  00000000  000265c4  2**2  CONTENTS, READONLY, DEBUGGING
 21 .stabstr        00000117  00000000  00000000  00026648  2**0  CONTENTS, READONLY, DEBUGGING
SYMBOL TABLE:
00000000 l    d  .init	00000000 .init
00000004 l    d  .highcodelalign	00000000 .highcodelalign
20000000 l    d  .highcode	00000000 .highcode
00000ac8 l    d  .text	00000000 .text
00004244 l    d  .fini	00000000 .fini
20000ac4 l    d  .dalign	00000000 .dalign
00004244 l    d  .dlalign	00000000 .dlalign
20000ac4 l    d  .data	00000000 .data
20000b78 l    d  .noncacheable	00000000 .noncacheable
20001ce0 l    d  .bss	00000000 .bss
20007ffc l    d  .stack	00000000 .stack
00000000 l    d  .debug_info	00000000 .debug_info
00000000 l    d  .debug_abbrev	00000000 .debug_abbrev
00000000 l    d  .debug_loc	00000000 .debug_loc
00000000 l    d  .debug_aranges	00000000 .debug_aranges
00000000 l    d  .debug_ranges	00000000 .debug_ranges
00000000 l    d  .debug_line	00000000 .debug_line
00000000 l    d  .debug_str	00000000 .debug_str
00000000 l    d  .comment	00000000 .comment
00000000 l    d  .debug_frame	00000000 .debug_frame
00000000 l    d  .stab	00000000 .stab
00000000 l    d  .stabstr	00000000 .stabstr
00000000 l    df *ABS*	00000000 ./ch58x_drivers/Startup/startup_CH583.o
20000000 l       .highcode	00000000 _vector_base
00000000 l    df *ABS*	00000000 CH58x_sys.c
00000000 l    df *ABS*	00000000 usb_ch58x_dc_usbfs.c
2000277c l     O .bss	000000fc usb_dc_cfg
00000000 l    df *ABS*	00000000 ISP583.c
200006b0 l       .highcode	00000000 .loop18
200006be l       .highcode	00000000 .loop29
200006cc l       .highcode	00000000 .loop40
20000958 l       .highcode	00000000 .loop402
00000000 l    df *ABS*	00000000 ghostfat.c
20000ac4 l     O .data	00000048 info
00003c78 l     O .text	0000003e BootBlock
20001ce0 l     O .bss	00000004 _flash_size
00000000 l    df *ABS*	00000000 msc_flash.c
20001d04 l     O .bss	00000818 _wr_state
00000000 l    df *ABS*	00000000 port_uf2.c
00000000 l    df *ABS*	00000000 port_common.c
00000000 l    df *ABS*	00000000 CH58x_flash.c
00000000 l    df *ABS*	00000000 main.c
00000000 l    df *ABS*	00000000 usbd_core.c
0000157e l     F .text	00000034 usbd_class_event_notify_handler
000015b2 l     F .text	00000068 usbd_set_endpoint
0000165e l     F .text	00000044 usbd_print_setup.constprop.12
000016a2 l     F .text	00000626 usbd_setup_request_handler.constprop.3
20001ce8 l     O .bss	00000004 bos_desc
20001cec l     O .bss	00000004 msosv1_desc
20001cf0 l     O .bss	00000004 msosv2_desc
00000000 l    df *ABS*	00000000 usbd_msc.c
00001f2c l     F .text	0000001c SCSI_SetSenseData
00001f48 l     F .text	000000a6 SCSI_processRead
00001fee l     F .text	00000030 usbd_msc_send_csw
0000201e l     F .text	00000076 msc_storage_class_interface_request_handler
20002938 l     O .bss	00000010 mass_ep_data
00000000 l    df *ABS*	00000000 memcmp.c
00000000 l    df *ABS*	00000000 memcpy.c
00000000 l    df *ABS*	00000000 printf.c
00000000 l    df *ABS*	00000000 puts.c
00000000 l    df *ABS*	00000000 wbuf.c
00000000 l    df *ABS*	00000000 wsetup.c
00000000 l    df *ABS*	00000000 fflush.c
00000000 l    df *ABS*	00000000 findfp.c
00002e26 l     F .text	0000006a std
00000000 l    df *ABS*	00000000 fwalk.c
00000000 l    df *ABS*	00000000 makebuf.c
00000000 l    df *ABS*	00000000 nano-mallocr.c
00000000 l    df *ABS*	00000000 nano-mallocr.c
00000000 l    df *ABS*	00000000 nano-vfprintf.c
000032e2 l     F .text	0000002a __sfputc_r
00000000 l    df *ABS*	00000000 nano-vfprintf_i.c
00000000 l    df *ABS*	00000000 sbrkr.c
00000000 l    df *ABS*	00000000 stdio.c
00000000 l    df *ABS*	00000000 writer.c
00000000 l    df *ABS*	00000000 closer.c
00000000 l    df *ABS*	00000000 fstatr.c
00000000 l    df *ABS*	00000000 isattyr.c
00000000 l    df *ABS*	00000000 lseekr.c
00000000 l    df *ABS*	00000000 memchr.c
00000000 l    df *ABS*	00000000 mlock.c
00000000 l    df *ABS*	00000000 readr.c
00000000 l    df *ABS*	00000000 close.c
00000000 l    df *ABS*	00000000 fstat.c
00000000 l    df *ABS*	00000000 isatty.c
00000000 l    df *ABS*	00000000 lseek.c
00000000 l    df *ABS*	00000000 read.c
00000000 l    df *ABS*	00000000 sbrk.c
20001d00 l     O .bss	00000004 heap_end.1518
00000000 l    df *ABS*	00000000 impure.c
20000b0c l     O .data	00000060 impure_data
00000000 l    df *ABS*	00000000 lgk_boot_core.c
00000000 l    df *ABS*	00000000 reent.c
00003b1e g     F .text	00000030 _isatty_r
000029ce g     F .text	000000da _puts_r
00003b4e g     F .text	00000034 _lseek_r
200006cc g     F .highcode	0000000e FLASH_ROM_OUT
00001026 g     F .text	00000010 usbd_msc_get_cap
0000298a g     F .text	00000044 printf
20001370 g       .data	00000000 __global_pointer$
00001d4e g     F .text	000000f6 usbd_event_ep0_setup_complete_handler
00003a4a g     F .text	00000036 __sseek
00002ee0 g     F .text	0000006a __sinit
00002ab6 g     F .text	000000c0 __swbuf_r
200002bc g     F .highcode	0000000e mDelayuS
20000276  w    F .highcode	00000046 HardFault_Handler
0000116c g     F .text	00000022 usb_dc_low_level_init
00002e9a g     F .text	00000046 __sfmoreglue
200000a2  w      .highcode	00000000 GPIOB_IRQHandler
00003b9e g     F .text	00000002 __malloc_unlock
200000a0  w      .highcode	00000000 GPIOA_IRQHandler
00001e64 g     F .text	00000020 usbd_event_ep_out_complete_handler
2000009a  w      .highcode	00000000 SysTick_Handler
20000090  w      .highcode	00000000 NMI_Handler
200000b4  w      .highcode	00000000 UART1_IRQHandler
00001160 g     F .text	0000000c lgk_boot_sys_init
00003aec g     F .text	00000032 _fstat_r
20002948 g     O .bss	00000004 errno
0000110a g     F .text	00000040 board_flash_write
20001ce0 g       .bss	00000000 _sbss
200006be g     F .highcode	0000000e FLASH_ROM_IN
200000b2  w      .highcode	00000000 UART0_IRQHandler
0000115e g     F .text	00000002 lgk_boot_intf_init
000028d4 g     F .text	000000b6 memcpy
0000114a g     F .text	00000002 board_flash_flush
00001cc8 g     F .text	00000050 usbd_event_ep0_out_complete_handler
00002e90 g     F .text	0000000a _cleanup_r
20001ce4 g     O .bss	00000001 flashing_start_flag
00002aa8 g     F .text	0000000e puts
00001406 g     F .text	0000003e usbd_ep_set_stall
0000115c g     F .text	00000002 lgk_boot_flash_read
000010c8 g     F .text	0000002e msc_flash_init
00003be4 g     F .text	00000010 _fstat
0000114c g     F .text	00000010 lgk_boot_flash_write
2000267c g     O .bss	00000080 ep2_data_buff
00000004 g       .init	00000000 _einit
00000c26 g     F .text	00000058 uf2_init
200000a6  w      .highcode	00000000 BB_IRQHandler
2000075a g     F .highcode	0000036a FLASH_EEPROM_CMD
20000098  w      .highcode	00000000 Break_Point_Handler
0000399c g     F .text	00000030 _sbrk_r
00001e84 g     F .text	0000003c usbd_desc_register
2000009e  w      .highcode	00000000 TMR0_IRQHandler
00003ba0 g     F .text	00000034 _read_r
2000069e g     F .highcode	00000012 FLASH_ROM_BEG
200028d8 g     O .bss	00000060 tx_msg
00002138 g     F .text	000006a6 mass_storage_bulk_out
200002ca g     F .highcode	00000028 mDelaymS
20000094  w      .highcode	00000000 Ecall_M_Mode_Handler
00003bf4 g     F .text	00000010 _isatty
00004240 g     O .text	00000004 _global_impure_ptr
200006da g     F .highcode	00000048 FLASH_ROM_ADDR
00003c24 g     F .text	00000030 _sbrk
00001206 g     F .text	00000094 usbd_ep_open
200000b6  w      .highcode	00000000 RTC_IRQHandler
2000294c g       .bss	00000000 _ebss
20002878 g     O .bss	00000060 rx_msg
00001f22 g     F .text	00000006 usb_device_is_configured
2000253c g     O .bss	000000c0 ep0_data_buff
0000118e g     F .text	0000001c FLASH_ROM_READ
20000722 g     F .highcode	00000038 FLASH_ROM_WAIT
00002094 g     F .text	0000006e mass_storage_bulk_in
00003da4 g     O .text	00000087 msc_flash_descriptor
00001486 g     F .text	000000f8 usb_dc_init
20001cf4 g     O .bss	00000004 usbd_intf_head
000041a4 g     O .text	00000020 __sf_fake_stderr
2000294c g       .bss	00000000 end
200000c0  w      .highcode	00000000 UART2_IRQHandler
200000bc  w      .highcode	00000000 PWMX_IRQHandler
0000330c g     F .text	00000042 __sfputs_r
00003b82 g     F .text	0000001a memchr
0000314e g     F .text	000000b0 _free_r
00000000 g       .init	00000000 _start
00001050 g     F .text	00000078 usbd_msc_sector_write
00003c04 g     F .text	00000010 _lseek
20000b78 g     O .noncacheable	00000120 usbd_core_cfg
00001024 g     F .text	00000002 usbd_configure_done_callback
00002102 g     F .text	00000036 msc_storage_notify_handler
200000b8  w      .highcode	00000000 ADC_IRQHandler
20000000 g       .highcode	00000000 _highcode_vma_start
00001102 g     F .text	00000006 board_flash_size
200000b0  w      .highcode	00000000 TMR2_IRQHandler
0000138a g     F .text	0000007c usbd_ep_start_read
00001e44 g     F .text	00000020 usbd_event_ep_in_complete_handler
00003abc g     F .text	00000030 _close_r
20000ac4 g       .data	00000000 _data_vma
000011e8 g     F .text	0000001e usbd_set_address
000028ae g     F .text	00000026 memcmp
200000c6 g     F .highcode	00000174 SetSysClock
200002f2 g     F .highcode	000003ac USB_IRQHandler
0000129a g     F .text	0000002a usbd_ep_close
00002b76 g     F .text	00000110 __swsetup_r
00002f4a g     F .text	000000a0 __sfp
00000ca0 g     F .text	000002bc uf2_read_block
000039cc g     F .text	00000030 __sread
00003b9c g     F .text	00000002 __malloc_lock
00002dc2 g     F .text	00000064 _fflush_r
000027de g     F .text	000000d0 usbd_msc_init_intf
00001036 g     F .text	0000001a usbd_msc_sector_read
000041c4 g     O .text	00000020 __sf_fake_stdin
200000ba  w      .highcode	00000000 I2C_IRQHandler
00000b7e g     F .text	000000a8 memset
000011d2 g     F .text	00000016 main
000012c4 g     F .text	000000c6 usbd_ep_start_write
00003a80 g     F .text	00000006 __sclose
000031fe g     F .text	000000e4 _malloc_r
200000ac  w      .highcode	00000000 USB2_IRQHandler
00001444 g     F .text	00000042 usbd_ep_clear_stall
20001ce5 g     O .bss	00000001 is_flashing_flag
00000004 g       .highcodelalign	00000000 _highcode_lma
00001d18 g     F .text	00000036 usbd_event_reset_handler
0000298a g     F .text	00000044 iprintf
200000a8  w      .highcode	00000000 LLE_IRQHandler
00000000 g       .init	00000000 _sinit
00003a86 g     F .text	00000036 _write_r
000035e8 g     F .text	0000010c _printf_common
20000b70 g     O .data	00000004 _impure_ptr
00002c86 g     F .text	0000013c __sflush_r
00000c7e g     F .text	00000022 padded_memcpy
200000c4  w      .highcode	00000000 WDOG_BAT_IRQHandler
20000096  w      .highcode	00000000 Ecall_U_Mode_Handler
00003cb8 g     O .text	0000006e indexFile
200000be  w      .highcode	00000000 TMR3_IRQHandler
20007ffc g       .stack	00000000 _eusrstack
2000009c  w      .highcode	00000000 SW_Handler
00001108 g     F .text	00000002 board_flash_read
00003056 g     F .text	0000005a __swhatbuf_r
00001f28 g     F .text	00000004 usbd_initialize
000011aa g     F .text	00000028 _write
20000b78 g       .data	00000000 _edata
200000a4  w      .highcode	00000000 SPI0_IRQHandler
20000ac4 g       .highcode	00000000 _highcode_vma_end
00004244 g       .dlalign	00000000 _data_lma
000039fc g     F .text	0000004e __swrite
0000334e g     F .text	0000029a _vfiprintf_r
00002fea g     F .text	0000006c _fwalk_reent
00001ee6 g     F .text	0000003c usbd_add_endpoint
0000161a g     F .text	00000044 usbd_event_ep0_in_complete_handler
200025fc g     O .bss	00000080 ep1_data_buff
000041e4 g     O .text	00000020 __sf_fake_stdout
00003c14 g     F .text	00000010 _read
00000ac8  w      .text	00000000 handle_reset
000010f6 g     F .text	0000000c lgk_boot_port_intf_init
000030b0 g     F .text	0000009e __smakebuf_r
000036f4 g     F .text	000002a8 _printf_i
200000c2  w      .highcode	00000000 UART3_IRQHandler
20001cfc g     O .bss	00000004 __malloc_sbrk_start
200006b0 g     F .highcode	0000000e FLASH_ROM_END
00000f5c g     F .text	000000c8 uf2_write_block
200026fc g     O .bss	00000080 ep3_data_buff
20001cf8 g     O .bss	00000004 __malloc_free_list
2000251c g     O .bss	00000020 intf0
0000334e g     F .text	0000029a _vfprintf_r
200000ae  w      .highcode	00000000 TMR1_IRQHandler
20000c98 g     O .noncacheable	00001048 usbd_msc_cfg
00003d28 g     O .text	0000007a infoUf2File
2000023a g     F .highcode	0000003c SYS_ResetExecute
00001ec0 g     F .text	00000026 usbd_add_interface
00003bd4 g     F .text	00000010 _close



Disassembly of section .init:

00000000 <_sinit>:
_start():
E:/Project/PlumBL/drv/ch58x_drivers/Startup/startup_CH583.S:15

	.section	.init,"ax",@progbits
	.global	_start
	.align	1
_start:
	j	handle_reset
   0:	2c90006f          	j	ac8 <handle_reset>

Disassembly of section .highcode:

20000000 <_highcode_vma_start>:
	...
_vector_base():
20000008:	0090                	addi	a2,sp,64
2000000a:	2000                	fld	fs0,0(s0)
2000000c:	0276                	slli	tp,tp,0x1d
2000000e:	2000                	fld	fs0,0(s0)
20000010:	bda9                	j	1ffffe6a <_data_lma+0x1fffbc26>
20000012:	f5f9                	bnez	a1,1fffffe0 <_data_lma+0x1fffbd9c>
20000014:	0094                	addi	a3,sp,64
20000016:	2000                	fld	fs0,0(s0)
	...
20000020:	0096                	slli	ra,ra,0x5
20000022:	2000                	fld	fs0,0(s0)
20000024:	0098                	addi	a4,sp,64
20000026:	2000                	fld	fs0,0(s0)
	...
20000030:	009a                	slli	ra,ra,0x6
20000032:	2000                	fld	fs0,0(s0)
20000034:	0000                	unimp
20000036:	0000                	unimp
20000038:	009c                	addi	a5,sp,64
2000003a:	2000                	fld	fs0,0(s0)
2000003c:	0000                	unimp
2000003e:	0000                	unimp
20000040:	009e                	slli	ra,ra,0x7
20000042:	2000                	fld	fs0,0(s0)
20000044:	00a0                	addi	s0,sp,72
20000046:	2000                	fld	fs0,0(s0)
20000048:	00a2                	slli	ra,ra,0x8
2000004a:	2000                	fld	fs0,0(s0)
2000004c:	00a4                	addi	s1,sp,72
2000004e:	2000                	fld	fs0,0(s0)
20000050:	00a6                	slli	ra,ra,0x9
20000052:	2000                	fld	fs0,0(s0)
20000054:	00a8                	addi	a0,sp,72
20000056:	2000                	fld	fs0,0(s0)
20000058:	02f2                	slli	t0,t0,0x1c
2000005a:	2000                	fld	fs0,0(s0)
2000005c:	00ac                	addi	a1,sp,72
2000005e:	2000                	fld	fs0,0(s0)
20000060:	00ae                	slli	ra,ra,0xb
20000062:	2000                	fld	fs0,0(s0)
20000064:	00b0                	addi	a2,sp,72
20000066:	2000                	fld	fs0,0(s0)
20000068:	00b2                	slli	ra,ra,0xc
2000006a:	2000                	fld	fs0,0(s0)
2000006c:	00b4                	addi	a3,sp,72
2000006e:	2000                	fld	fs0,0(s0)
20000070:	00b6                	slli	ra,ra,0xd
20000072:	2000                	fld	fs0,0(s0)
20000074:	00b8                	addi	a4,sp,72
20000076:	2000                	fld	fs0,0(s0)
20000078:	00ba                	slli	ra,ra,0xe
2000007a:	2000                	fld	fs0,0(s0)
2000007c:	00bc                	addi	a5,sp,72
2000007e:	2000                	fld	fs0,0(s0)
20000080:	00be                	slli	ra,ra,0xf
20000082:	2000                	fld	fs0,0(s0)
20000084:	00c0                	addi	s0,sp,68
20000086:	2000                	fld	fs0,0(s0)
20000088:	00c2                	slli	ra,ra,0x10
2000008a:	2000                	fld	fs0,0(s0)
2000008c:	00c4                	addi	s1,sp,68
2000008e:	2000                	fld	fs0,0(s0)

20000090 <NMI_Handler>:
NMI_Handler():
E:/Project/PlumBL/drv/ch58x_drivers/Startup/startup_CH583.S:91
    .weak   TMR3_IRQHandler
    .weak   UART2_IRQHandler
    .weak   UART3_IRQHandler
    .weak   WDOG_BAT_IRQHandler

NMI_Handler:         1:  j 1b
20000090:	a001                	j	20000090 <NMI_Handler>
E:/Project/PlumBL/drv/ch58x_drivers/Startup/startup_CH583.S:92
HardFault_Handler:   1:  j 1b
20000092:	a001                	j	20000092 <NMI_Handler+0x2>

20000094 <Ecall_M_Mode_Handler>:
Ecall_M_Mode_Handler():
E:/Project/PlumBL/drv/ch58x_drivers/Startup/startup_CH583.S:93
Ecall_M_Mode_Handler:   1:  j 1b
20000094:	a001                	j	20000094 <Ecall_M_Mode_Handler>

20000096 <Ecall_U_Mode_Handler>:
Ecall_U_Mode_Handler():
E:/Project/PlumBL/drv/ch58x_drivers/Startup/startup_CH583.S:94
Ecall_U_Mode_Handler:   1:  j 1b
20000096:	a001                	j	20000096 <Ecall_U_Mode_Handler>

20000098 <Break_Point_Handler>:
Break_Point_Handler():
E:/Project/PlumBL/drv/ch58x_drivers/Startup/startup_CH583.S:95
Break_Point_Handler:   1:  j 1b
20000098:	a001                	j	20000098 <Break_Point_Handler>

2000009a <SysTick_Handler>:
SysTick_Handler():
E:/Project/PlumBL/drv/ch58x_drivers/Startup/startup_CH583.S:96
SysTick_Handler:     1:  j 1b
2000009a:	a001                	j	2000009a <SysTick_Handler>

2000009c <SW_Handler>:
SW_Handler():
E:/Project/PlumBL/drv/ch58x_drivers/Startup/startup_CH583.S:97
SW_Handler:          1:  j 1b
2000009c:	a001                	j	2000009c <SW_Handler>

2000009e <TMR0_IRQHandler>:
TMR0_IRQHandler():
E:/Project/PlumBL/drv/ch58x_drivers/Startup/startup_CH583.S:98
TMR0_IRQHandler:     1:  j 1b
2000009e:	a001                	j	2000009e <TMR0_IRQHandler>

200000a0 <GPIOA_IRQHandler>:
GPIOA_IRQHandler():
E:/Project/PlumBL/drv/ch58x_drivers/Startup/startup_CH583.S:99
GPIOA_IRQHandler:    1:  j 1b
200000a0:	a001                	j	200000a0 <GPIOA_IRQHandler>

200000a2 <GPIOB_IRQHandler>:
GPIOB_IRQHandler():
E:/Project/PlumBL/drv/ch58x_drivers/Startup/startup_CH583.S:100
GPIOB_IRQHandler:    1:  j 1b
200000a2:	a001                	j	200000a2 <GPIOB_IRQHandler>

200000a4 <SPI0_IRQHandler>:
SPI0_IRQHandler():
E:/Project/PlumBL/drv/ch58x_drivers/Startup/startup_CH583.S:101
SPI0_IRQHandler:     1:  j 1b
200000a4:	a001                	j	200000a4 <SPI0_IRQHandler>

200000a6 <BB_IRQHandler>:
BB_IRQHandler():
E:/Project/PlumBL/drv/ch58x_drivers/Startup/startup_CH583.S:102
BB_IRQHandler:       1:  j 1b
200000a6:	a001                	j	200000a6 <BB_IRQHandler>

200000a8 <LLE_IRQHandler>:
LLE_IRQHandler():
E:/Project/PlumBL/drv/ch58x_drivers/Startup/startup_CH583.S:103
LLE_IRQHandler:      1:  j 1b
200000a8:	a001                	j	200000a8 <LLE_IRQHandler>
E:/Project/PlumBL/drv/ch58x_drivers/Startup/startup_CH583.S:104
USB_IRQHandler:      1:  j 1b
200000aa:	a001                	j	200000aa <LLE_IRQHandler+0x2>

200000ac <USB2_IRQHandler>:
USB2_IRQHandler():
E:/Project/PlumBL/drv/ch58x_drivers/Startup/startup_CH583.S:105
USB2_IRQHandler:      1:  j 1b
200000ac:	a001                	j	200000ac <USB2_IRQHandler>

200000ae <TMR1_IRQHandler>:
TMR1_IRQHandler():
E:/Project/PlumBL/drv/ch58x_drivers/Startup/startup_CH583.S:106
TMR1_IRQHandler:     1:  j 1b
200000ae:	a001                	j	200000ae <TMR1_IRQHandler>

200000b0 <TMR2_IRQHandler>:
TMR2_IRQHandler():
E:/Project/PlumBL/drv/ch58x_drivers/Startup/startup_CH583.S:107
TMR2_IRQHandler:     1:  j 1b
200000b0:	a001                	j	200000b0 <TMR2_IRQHandler>

200000b2 <UART0_IRQHandler>:
UART0_IRQHandler():
E:/Project/PlumBL/drv/ch58x_drivers/Startup/startup_CH583.S:108
UART0_IRQHandler:    1:  j 1b
200000b2:	a001                	j	200000b2 <UART0_IRQHandler>

200000b4 <UART1_IRQHandler>:
UART1_IRQHandler():
E:/Project/PlumBL/drv/ch58x_drivers/Startup/startup_CH583.S:109
UART1_IRQHandler:    1:  j 1b
200000b4:	a001                	j	200000b4 <UART1_IRQHandler>

200000b6 <RTC_IRQHandler>:
RTC_IRQHandler():
E:/Project/PlumBL/drv/ch58x_drivers/Startup/startup_CH583.S:110
RTC_IRQHandler:      1:  j 1b
200000b6:	a001                	j	200000b6 <RTC_IRQHandler>

200000b8 <ADC_IRQHandler>:
ADC_IRQHandler():
E:/Project/PlumBL/drv/ch58x_drivers/Startup/startup_CH583.S:111
ADC_IRQHandler:      1:  j 1b
200000b8:	a001                	j	200000b8 <ADC_IRQHandler>

200000ba <I2C_IRQHandler>:
I2C_IRQHandler():
E:/Project/PlumBL/drv/ch58x_drivers/Startup/startup_CH583.S:112
I2C_IRQHandler:		 1:  j 1b
200000ba:	a001                	j	200000ba <I2C_IRQHandler>

200000bc <PWMX_IRQHandler>:
PWMX_IRQHandler():
E:/Project/PlumBL/drv/ch58x_drivers/Startup/startup_CH583.S:113
PWMX_IRQHandler:     1:  j 1b
200000bc:	a001                	j	200000bc <PWMX_IRQHandler>

200000be <TMR3_IRQHandler>:
TMR3_IRQHandler():
E:/Project/PlumBL/drv/ch58x_drivers/Startup/startup_CH583.S:114
TMR3_IRQHandler:     1:  j 1b
200000be:	a001                	j	200000be <TMR3_IRQHandler>

200000c0 <UART2_IRQHandler>:
UART2_IRQHandler():
E:/Project/PlumBL/drv/ch58x_drivers/Startup/startup_CH583.S:115
UART2_IRQHandler:    1:  j 1b
200000c0:	a001                	j	200000c0 <UART2_IRQHandler>

200000c2 <UART3_IRQHandler>:
UART3_IRQHandler():
E:/Project/PlumBL/drv/ch58x_drivers/Startup/startup_CH583.S:116
UART3_IRQHandler:    1:  j 1b
200000c2:	a001                	j	200000c2 <UART3_IRQHandler>

200000c4 <WDOG_BAT_IRQHandler>:
WDOG_BAT_IRQHandler():
E:/Project/PlumBL/drv/ch58x_drivers/Startup/startup_CH583.S:117
WDOG_BAT_IRQHandler: 1:  j 1b
200000c4:	a001                	j	200000c4 <WDOG_BAT_IRQHandler>

200000c6 <SetSysClock>:
sys_safe_access_enable():
E:\Project\PlumBL\drv\ch58x_drivers\StdPeriphDriver\inc/CH58x_sys.h:171
void mDelaymS(uint16_t t);

/* Safe access */
 __attribute__((always_inline)) static inline void sys_safe_access_enable(void)
{
    R8_SAFE_ACCESS_SIG = SAFE_ACCESS_SIG1;
200000c6:	400017b7          	lui	a5,0x40001
200000ca:	05700693          	li	a3,87
200000ce:	04d78023          	sb	a3,64(a5) # 40001040 <_eusrstack+0x1fff9044>
E:\Project\PlumBL\drv\ch58x_drivers\StdPeriphDriver\inc/CH58x_sys.h:172
    R8_SAFE_ACCESS_SIG = SAFE_ACCESS_SIG2;
200000d2:	fa800713          	li	a4,-88
200000d6:	04e78023          	sb	a4,64(a5)
E:\Project\PlumBL\drv\ch58x_drivers\StdPeriphDriver\inc/CH58x_sys.h:173
    SAFEOPERATE;
200000da:	0001                	nop
200000dc:	0001                	nop
SetSysClock():
E:/Project/PlumBL/drv/ch58x_drivers/StdPeriphDriver/CH58x_sys.c:27
__HIGH_CODE
void SetSysClock(SYS_CLKTypeDef sc)
{
    uint32_t i;
    sys_safe_access_enable();
    R8_PLL_CONFIG &= ~(1 << 5); //
200000de:	04b7c603          	lbu	a2,75(a5)
200000e2:	0df67613          	andi	a2,a2,223
200000e6:	04c785a3          	sb	a2,75(a5)
sys_safe_access_disable():
E:\Project\PlumBL\drv\ch58x_drivers\StdPeriphDriver\inc/CH58x_sys.h:178
}

__attribute__((always_inline)) static inline void sys_safe_access_disable(void)
{
    R8_SAFE_ACCESS_SIG = 0;
200000ea:	04078023          	sb	zero,64(a5)
SetSysClock():
E:/Project/PlumBL/drv/ch58x_drivers/StdPeriphDriver/CH58x_sys.c:29
    sys_safe_access_disable();
    if(sc & 0x20)
200000ee:	02057613          	andi	a2,a0,32
200000f2:	c24d                	beqz	a2,20000194 <SetSysClock+0xce>
E:/Project/PlumBL/drv/ch58x_drivers/StdPeriphDriver/CH58x_sys.c:31
    { // HSE div
        if(!(R8_HFCK_PWR_CTRL & RB_CLK_XT32M_PON))
200000f4:	00a7c603          	lbu	a2,10(a5)
200000f8:	8a11                	andi	a2,a2,4
200000fa:	e21d                	bnez	a2,20000120 <SetSysClock+0x5a>
sys_safe_access_enable():
E:\Project\PlumBL\drv\ch58x_drivers\StdPeriphDriver\inc/CH58x_sys.h:171
    R8_SAFE_ACCESS_SIG = SAFE_ACCESS_SIG1;
200000fc:	04d78023          	sb	a3,64(a5)
E:\Project\PlumBL\drv\ch58x_drivers\StdPeriphDriver\inc/CH58x_sys.h:172
    R8_SAFE_ACCESS_SIG = SAFE_ACCESS_SIG2;
20000100:	04e78023          	sb	a4,64(a5)
E:\Project\PlumBL\drv\ch58x_drivers\StdPeriphDriver\inc/CH58x_sys.h:173
    SAFEOPERATE;
20000104:	0001                	nop
20000106:	0001                	nop
SetSysClock():
E:/Project/PlumBL/drv/ch58x_drivers/StdPeriphDriver/CH58x_sys.c:34
        {
            sys_safe_access_enable();
            R8_HFCK_PWR_CTRL |= RB_CLK_XT32M_PON; // HSE power on
20000108:	00a7c703          	lbu	a4,10(a5)
2000010c:	00476713          	ori	a4,a4,4
20000110:	00e78523          	sb	a4,10(a5)
20000114:	4b000793          	li	a5,1200
E:/Project/PlumBL/drv/ch58x_drivers/StdPeriphDriver/CH58x_sys.c:37 (discriminator 3)
            for(i = 0; i < 1200; i++)
            {
                __nop();
20000118:	0001                	nop
E:/Project/PlumBL/drv/ch58x_drivers/StdPeriphDriver/CH58x_sys.c:38 (discriminator 3)
                __nop();
2000011a:	0001                	nop
2000011c:	17fd                	addi	a5,a5,-1
E:/Project/PlumBL/drv/ch58x_drivers/StdPeriphDriver/CH58x_sys.c:35 (discriminator 3)
            for(i = 0; i < 1200; i++)
2000011e:	ffed                	bnez	a5,20000118 <SetSysClock+0x52>
sys_safe_access_enable():
E:\Project\PlumBL\drv\ch58x_drivers\StdPeriphDriver\inc/CH58x_sys.h:171
    R8_SAFE_ACCESS_SIG = SAFE_ACCESS_SIG1;
20000120:	400017b7          	lui	a5,0x40001
20000124:	05700693          	li	a3,87
20000128:	04d78023          	sb	a3,64(a5) # 40001040 <_eusrstack+0x1fff9044>
E:\Project\PlumBL\drv\ch58x_drivers\StdPeriphDriver\inc/CH58x_sys.h:172
    R8_SAFE_ACCESS_SIG = SAFE_ACCESS_SIG2;
2000012c:	fa800713          	li	a4,-88
20000130:	04e78023          	sb	a4,64(a5)
E:\Project\PlumBL\drv\ch58x_drivers\StdPeriphDriver\inc/CH58x_sys.h:173
    SAFEOPERATE;
20000134:	0001                	nop
20000136:	0001                	nop
SetSysClock():
E:/Project/PlumBL/drv/ch58x_drivers/StdPeriphDriver/CH58x_sys.c:43
            }
        }

        sys_safe_access_enable();
        R16_CLK_SYS_CFG = (0 << 6) | (sc & 0x1f);
20000138:	897d                	andi	a0,a0,31
2000013a:	00a79423          	sh	a0,8(a5)
E:/Project/PlumBL/drv/ch58x_drivers/StdPeriphDriver/CH58x_sys.c:44
        __nop();
2000013e:	0001                	nop
E:/Project/PlumBL/drv/ch58x_drivers/StdPeriphDriver/CH58x_sys.c:45
        __nop();
20000140:	0001                	nop
E:/Project/PlumBL/drv/ch58x_drivers/StdPeriphDriver/CH58x_sys.c:46
        __nop();
20000142:	0001                	nop
E:/Project/PlumBL/drv/ch58x_drivers/StdPeriphDriver/CH58x_sys.c:47
        __nop();
20000144:	0001                	nop
sys_safe_access_disable():
E:\Project\PlumBL\drv\ch58x_drivers\StdPeriphDriver\inc/CH58x_sys.h:178
    R8_SAFE_ACCESS_SIG = 0;
20000146:	04078023          	sb	zero,64(a5)
sys_safe_access_enable():
E:\Project\PlumBL\drv\ch58x_drivers\StdPeriphDriver\inc/CH58x_sys.h:171
    R8_SAFE_ACCESS_SIG = SAFE_ACCESS_SIG1;
2000014a:	04d78023          	sb	a3,64(a5)
E:\Project\PlumBL\drv\ch58x_drivers\StdPeriphDriver\inc/CH58x_sys.h:172
    R8_SAFE_ACCESS_SIG = SAFE_ACCESS_SIG2;
2000014e:	04e78023          	sb	a4,64(a5)
E:\Project\PlumBL\drv\ch58x_drivers\StdPeriphDriver\inc/CH58x_sys.h:173
    SAFEOPERATE;
20000152:	0001                	nop
20000154:	0001                	nop
SetSysClock():
E:/Project/PlumBL/drv/ch58x_drivers/StdPeriphDriver/CH58x_sys.c:50
        sys_safe_access_disable();
        sys_safe_access_enable();
        SAFEOPERATE;
20000156:	0001                	nop
20000158:	0001                	nop
E:/Project/PlumBL/drv/ch58x_drivers/StdPeriphDriver/CH58x_sys.c:51
        R8_FLASH_CFG = 0X51;
2000015a:	40002737          	lui	a4,0x40002
2000015e:	05100693          	li	a3,81
E:/Project/PlumBL/drv/ch58x_drivers/StdPeriphDriver/CH58x_sys.c:77
        __nop();
        sys_safe_access_disable();
        if(sc == CLK_SOURCE_PLL_80MHz)
        {
            sys_safe_access_enable();
            R8_FLASH_CFG = 0X02;
20000162:	80d703a3          	sb	a3,-2041(a4) # 40001807 <_eusrstack+0x1fff980b>
sys_safe_access_disable():
E:\Project\PlumBL\drv\ch58x_drivers\StdPeriphDriver\inc/CH58x_sys.h:178
    R8_SAFE_ACCESS_SIG = 0;
20000166:	04078023          	sb	zero,64(a5)
sys_safe_access_enable():
E:\Project\PlumBL\drv\ch58x_drivers\StdPeriphDriver\inc/CH58x_sys.h:171
    R8_SAFE_ACCESS_SIG = SAFE_ACCESS_SIG1;
2000016a:	400017b7          	lui	a5,0x40001
2000016e:	05700713          	li	a4,87
20000172:	04e78023          	sb	a4,64(a5) # 40001040 <_eusrstack+0x1fff9044>
E:\Project\PlumBL\drv\ch58x_drivers\StdPeriphDriver\inc/CH58x_sys.h:172
    R8_SAFE_ACCESS_SIG = SAFE_ACCESS_SIG2;
20000176:	fa800713          	li	a4,-88
2000017a:	04e78023          	sb	a4,64(a5)
E:\Project\PlumBL\drv\ch58x_drivers\StdPeriphDriver\inc/CH58x_sys.h:173
    SAFEOPERATE;
2000017e:	0001                	nop
20000180:	0001                	nop
SetSysClock():
E:/Project/PlumBL/drv/ch58x_drivers/StdPeriphDriver/CH58x_sys.c:94
        sys_safe_access_enable();
        R16_CLK_SYS_CFG |= RB_CLK_SYS_MOD;
    }
    //更改FLASH clk的驱动能力
    sys_safe_access_enable();
    R8_PLL_CONFIG |= 1 << 7;
20000182:	04b7c703          	lbu	a4,75(a5)
20000186:	08076713          	ori	a4,a4,128
2000018a:	04e785a3          	sb	a4,75(a5)
sys_safe_access_disable():
E:\Project\PlumBL\drv\ch58x_drivers\StdPeriphDriver\inc/CH58x_sys.h:178
    R8_SAFE_ACCESS_SIG = 0;
2000018e:	04078023          	sb	zero,64(a5)
SetSysClock():
E:/Project/PlumBL/drv/ch58x_drivers/StdPeriphDriver/CH58x_sys.c:96
    sys_safe_access_disable();
}
20000192:	8082                	ret
E:/Project/PlumBL/drv/ch58x_drivers/StdPeriphDriver/CH58x_sys.c:55
    else if(sc & 0x40)
20000194:	04057613          	andi	a2,a0,64
20000198:	c641                	beqz	a2,20000220 <SetSysClock+0x15a>
E:/Project/PlumBL/drv/ch58x_drivers/StdPeriphDriver/CH58x_sys.c:57
        if(!(R8_HFCK_PWR_CTRL & RB_CLK_PLL_PON))
2000019a:	00a7c603          	lbu	a2,10(a5)
2000019e:	8a41                	andi	a2,a2,16
200001a0:	e21d                	bnez	a2,200001c6 <SetSysClock+0x100>
sys_safe_access_enable():
E:\Project\PlumBL\drv\ch58x_drivers\StdPeriphDriver\inc/CH58x_sys.h:171
    R8_SAFE_ACCESS_SIG = SAFE_ACCESS_SIG1;
200001a2:	04d78023          	sb	a3,64(a5)
E:\Project\PlumBL\drv\ch58x_drivers\StdPeriphDriver\inc/CH58x_sys.h:172
    R8_SAFE_ACCESS_SIG = SAFE_ACCESS_SIG2;
200001a6:	04e78023          	sb	a4,64(a5)
E:\Project\PlumBL\drv\ch58x_drivers\StdPeriphDriver\inc/CH58x_sys.h:173
    SAFEOPERATE;
200001aa:	0001                	nop
200001ac:	0001                	nop
SetSysClock():
E:/Project/PlumBL/drv/ch58x_drivers/StdPeriphDriver/CH58x_sys.c:60
            R8_HFCK_PWR_CTRL |= RB_CLK_PLL_PON; // PLL power on
200001ae:	00a7c703          	lbu	a4,10(a5)
200001b2:	01076713          	ori	a4,a4,16
200001b6:	00e78523          	sb	a4,10(a5)
200001ba:	7d000793          	li	a5,2000
E:/Project/PlumBL/drv/ch58x_drivers/StdPeriphDriver/CH58x_sys.c:63 (discriminator 3)
                __nop();
200001be:	0001                	nop
E:/Project/PlumBL/drv/ch58x_drivers/StdPeriphDriver/CH58x_sys.c:64 (discriminator 3)
                __nop();
200001c0:	0001                	nop
200001c2:	17fd                	addi	a5,a5,-1
E:/Project/PlumBL/drv/ch58x_drivers/StdPeriphDriver/CH58x_sys.c:61 (discriminator 3)
            for(i = 0; i < 2000; i++)
200001c4:	ffed                	bnez	a5,200001be <SetSysClock+0xf8>
sys_safe_access_enable():
E:\Project\PlumBL\drv\ch58x_drivers\StdPeriphDriver\inc/CH58x_sys.h:171
    R8_SAFE_ACCESS_SIG = SAFE_ACCESS_SIG1;
200001c6:	400017b7          	lui	a5,0x40001
200001ca:	05700693          	li	a3,87
200001ce:	04d78023          	sb	a3,64(a5) # 40001040 <_eusrstack+0x1fff9044>
E:\Project\PlumBL\drv\ch58x_drivers\StdPeriphDriver\inc/CH58x_sys.h:172
    R8_SAFE_ACCESS_SIG = SAFE_ACCESS_SIG2;
200001d2:	fa800713          	li	a4,-88
200001d6:	04e78023          	sb	a4,64(a5)
E:\Project\PlumBL\drv\ch58x_drivers\StdPeriphDriver\inc/CH58x_sys.h:173
    SAFEOPERATE;
200001da:	0001                	nop
200001dc:	0001                	nop
SetSysClock():
E:/Project/PlumBL/drv/ch58x_drivers/StdPeriphDriver/CH58x_sys.c:68
        R16_CLK_SYS_CFG = (1 << 6) | (sc & 0x1f);
200001de:	01f57613          	andi	a2,a0,31
200001e2:	04066613          	ori	a2,a2,64
200001e6:	00c79423          	sh	a2,8(a5)
E:/Project/PlumBL/drv/ch58x_drivers/StdPeriphDriver/CH58x_sys.c:69
        __nop();
200001ea:	0001                	nop
E:/Project/PlumBL/drv/ch58x_drivers/StdPeriphDriver/CH58x_sys.c:70
        __nop();
200001ec:	0001                	nop
E:/Project/PlumBL/drv/ch58x_drivers/StdPeriphDriver/CH58x_sys.c:71
        __nop();
200001ee:	0001                	nop
E:/Project/PlumBL/drv/ch58x_drivers/StdPeriphDriver/CH58x_sys.c:72
        __nop();
200001f0:	0001                	nop
sys_safe_access_disable():
E:\Project\PlumBL\drv\ch58x_drivers\StdPeriphDriver\inc/CH58x_sys.h:178
    R8_SAFE_ACCESS_SIG = 0;
200001f2:	04078023          	sb	zero,64(a5)
sys_safe_access_enable():
E:\Project\PlumBL\drv\ch58x_drivers\StdPeriphDriver\inc/CH58x_sys.h:171
    R8_SAFE_ACCESS_SIG = SAFE_ACCESS_SIG1;
200001f6:	04d78023          	sb	a3,64(a5)
SetSysClock():
E:/Project/PlumBL/drv/ch58x_drivers/StdPeriphDriver/CH58x_sys.c:74
        if(sc == CLK_SOURCE_PLL_80MHz)
200001fa:	04600613          	li	a2,70
sys_safe_access_enable():
E:\Project\PlumBL\drv\ch58x_drivers\StdPeriphDriver\inc/CH58x_sys.h:172
    R8_SAFE_ACCESS_SIG = SAFE_ACCESS_SIG2;
200001fe:	04e78023          	sb	a4,64(a5)
SetSysClock():
E:/Project/PlumBL/drv/ch58x_drivers/StdPeriphDriver/CH58x_sys.c:74
20000202:	00c51863          	bne	a0,a2,20000212 <SetSysClock+0x14c>
sys_safe_access_enable():
E:\Project\PlumBL\drv\ch58x_drivers\StdPeriphDriver\inc/CH58x_sys.h:173
    SAFEOPERATE;
20000206:	0001                	nop
20000208:	0001                	nop
SetSysClock():
E:/Project/PlumBL/drv/ch58x_drivers/StdPeriphDriver/CH58x_sys.c:77
            R8_FLASH_CFG = 0X02;
2000020a:	40002737          	lui	a4,0x40002
2000020e:	4689                	li	a3,2
20000210:	bf89                	j	20000162 <SetSysClock+0x9c>
sys_safe_access_enable():
E:\Project\PlumBL\drv\ch58x_drivers\StdPeriphDriver\inc/CH58x_sys.h:173
20000212:	0001                	nop
20000214:	0001                	nop
SetSysClock():
E:/Project/PlumBL/drv/ch58x_drivers/StdPeriphDriver/CH58x_sys.c:83
            R8_FLASH_CFG = 0X52;
20000216:	40002737          	lui	a4,0x40002
2000021a:	05200693          	li	a3,82
2000021e:	b791                	j	20000162 <SetSysClock+0x9c>
sys_safe_access_enable():
E:\Project\PlumBL\drv\ch58x_drivers\StdPeriphDriver\inc/CH58x_sys.h:171
    R8_SAFE_ACCESS_SIG = SAFE_ACCESS_SIG1;
20000220:	04d78023          	sb	a3,64(a5)
E:\Project\PlumBL\drv\ch58x_drivers\StdPeriphDriver\inc/CH58x_sys.h:172
    R8_SAFE_ACCESS_SIG = SAFE_ACCESS_SIG2;
20000224:	04e78023          	sb	a4,64(a5)
E:\Project\PlumBL\drv\ch58x_drivers\StdPeriphDriver\inc/CH58x_sys.h:173
    SAFEOPERATE;
20000228:	0001                	nop
2000022a:	0001                	nop
SetSysClock():
E:/Project/PlumBL/drv/ch58x_drivers/StdPeriphDriver/CH58x_sys.c:90
        R16_CLK_SYS_CFG |= RB_CLK_SYS_MOD;
2000022c:	0087d703          	lhu	a4,8(a5)
20000230:	0c076713          	ori	a4,a4,192
20000234:	00e79423          	sh	a4,8(a5)
20000238:	bf0d                	j	2000016a <SetSysClock+0xa4>

2000023a <SYS_ResetExecute>:
SYS_ResetExecute():
E:/Project/PlumBL/drv/ch58x_drivers/StdPeriphDriver/CH58x_sys.c:158
 *
 * @return  none
 */
__HIGH_CODE
void SYS_ResetExecute(void)
{
2000023a:	1141                	addi	sp,sp,-16
E:/Project/PlumBL/drv/ch58x_drivers/StdPeriphDriver/CH58x_sys.c:159
    FLASH_ROM_SW_RESET();
2000023c:	4681                	li	a3,0
2000023e:	4601                	li	a2,0
20000240:	4581                	li	a1,0
20000242:	4511                	li	a0,4
E:/Project/PlumBL/drv/ch58x_drivers/StdPeriphDriver/CH58x_sys.c:158
{
20000244:	c606                	sw	ra,12(sp)
E:/Project/PlumBL/drv/ch58x_drivers/StdPeriphDriver/CH58x_sys.c:159
    FLASH_ROM_SW_RESET();
20000246:	2b11                	jal	2000075a <FLASH_EEPROM_CMD>
sys_safe_access_enable():
E:\Project\PlumBL\drv\ch58x_drivers\StdPeriphDriver\inc/CH58x_sys.h:171
    R8_SAFE_ACCESS_SIG = SAFE_ACCESS_SIG1;
20000248:	400017b7          	lui	a5,0x40001
2000024c:	05700713          	li	a4,87
20000250:	04e78023          	sb	a4,64(a5) # 40001040 <_eusrstack+0x1fff9044>
E:\Project\PlumBL\drv\ch58x_drivers\StdPeriphDriver\inc/CH58x_sys.h:172
    R8_SAFE_ACCESS_SIG = SAFE_ACCESS_SIG2;
20000254:	fa800713          	li	a4,-88
20000258:	04e78023          	sb	a4,64(a5)
E:\Project\PlumBL\drv\ch58x_drivers\StdPeriphDriver\inc/CH58x_sys.h:173
    SAFEOPERATE;
2000025c:	0001                	nop
2000025e:	0001                	nop
SYS_ResetExecute():
E:/Project/PlumBL/drv/ch58x_drivers/StdPeriphDriver/CH58x_sys.c:161
    sys_safe_access_enable();
    R8_RST_WDOG_CTRL |= RB_SOFTWARE_RESET;
20000260:	0467c703          	lbu	a4,70(a5)
20000264:	00176713          	ori	a4,a4,1
20000268:	04e78323          	sb	a4,70(a5)
sys_safe_access_disable():
E:\Project\PlumBL\drv\ch58x_drivers\StdPeriphDriver\inc/CH58x_sys.h:178
    R8_SAFE_ACCESS_SIG = 0;
2000026c:	04078023          	sb	zero,64(a5)
SYS_ResetExecute():
E:/Project/PlumBL/drv/ch58x_drivers/StdPeriphDriver/CH58x_sys.c:163
    sys_safe_access_disable();
}
20000270:	40b2                	lw	ra,12(sp)
20000272:	0141                	addi	sp,sp,16
20000274:	8082                	ret

20000276 <HardFault_Handler>:
HardFault_Handler():
E:/Project/PlumBL/drv/ch58x_drivers/StdPeriphDriver/CH58x_sys.c:297
__INTERRUPT
__HIGH_CODE
__attribute__((weak))
void HardFault_Handler(void)
{
    FLASH_ROM_SW_RESET();
20000276:	4681                	li	a3,0
20000278:	4601                	li	a2,0
2000027a:	4581                	li	a1,0
2000027c:	4511                	li	a0,4
2000027e:	29f1                	jal	2000075a <FLASH_EEPROM_CMD>
sys_safe_access_enable():
E:\Project\PlumBL\drv\ch58x_drivers\StdPeriphDriver\inc/CH58x_sys.h:171
    R8_SAFE_ACCESS_SIG = SAFE_ACCESS_SIG1;
20000280:	400017b7          	lui	a5,0x40001
20000284:	05700693          	li	a3,87
20000288:	04d78023          	sb	a3,64(a5) # 40001040 <_eusrstack+0x1fff9044>
E:\Project\PlumBL\drv\ch58x_drivers\StdPeriphDriver\inc/CH58x_sys.h:172
    R8_SAFE_ACCESS_SIG = SAFE_ACCESS_SIG2;
2000028c:	fa800713          	li	a4,-88
20000290:	04e78023          	sb	a4,64(a5)
E:\Project\PlumBL\drv\ch58x_drivers\StdPeriphDriver\inc/CH58x_sys.h:173
    SAFEOPERATE;
20000294:	0001                	nop
20000296:	0001                	nop
HardFault_Handler():
E:/Project/PlumBL/drv/ch58x_drivers/StdPeriphDriver/CH58x_sys.c:299
    sys_safe_access_enable();
    R16_INT32K_TUNE = 0xFFFF;
20000298:	567d                	li	a2,-1
2000029a:	02c79623          	sh	a2,44(a5)
sys_safe_access_enable():
E:\Project\PlumBL\drv\ch58x_drivers\StdPeriphDriver\inc/CH58x_sys.h:171
    R8_SAFE_ACCESS_SIG = SAFE_ACCESS_SIG1;
2000029e:	04d78023          	sb	a3,64(a5)
E:\Project\PlumBL\drv\ch58x_drivers\StdPeriphDriver\inc/CH58x_sys.h:172
    R8_SAFE_ACCESS_SIG = SAFE_ACCESS_SIG2;
200002a2:	04e78023          	sb	a4,64(a5)
E:\Project\PlumBL\drv\ch58x_drivers\StdPeriphDriver\inc/CH58x_sys.h:173
    SAFEOPERATE;
200002a6:	0001                	nop
200002a8:	0001                	nop
HardFault_Handler():
E:/Project/PlumBL/drv/ch58x_drivers/StdPeriphDriver/CH58x_sys.c:301
    sys_safe_access_enable();
    R8_RST_WDOG_CTRL |= RB_SOFTWARE_RESET;
200002aa:	0467c703          	lbu	a4,70(a5)
200002ae:	00176713          	ori	a4,a4,1
200002b2:	04e78323          	sb	a4,70(a5)
sys_safe_access_disable():
E:\Project\PlumBL\drv\ch58x_drivers\StdPeriphDriver\inc/CH58x_sys.h:178
    R8_SAFE_ACCESS_SIG = 0;
200002b6:	04078023          	sb	zero,64(a5)
HardFault_Handler():
E:/Project/PlumBL/drv/ch58x_drivers/StdPeriphDriver/CH58x_sys.c:303 (discriminator 1)
    sys_safe_access_disable();
    while(1);
200002ba:	a001                	j	200002ba <HardFault_Handler+0x44>

200002bc <mDelayuS>:
mDelayuS():
E:/Project/PlumBL/drv/ch58x_drivers/StdPeriphDriver/CH58x_sys.c:322
{
    uint32_t i;
#if(FREQ_SYS == 80000000)
    i = t * 20;
#elif(FREQ_SYS == 60000000)
    i = t * 15;
200002bc:	47bd                	li	a5,15
200002be:	02f50533          	mul	a0,a0,a5
E:/Project/PlumBL/drv/ch58x_drivers/StdPeriphDriver/CH58x_sys.c:346 (discriminator 1)
#else
    i = t << 1;
#endif
    do
    {
        __nop();
200002c2:	0001                	nop
E:/Project/PlumBL/drv/ch58x_drivers/StdPeriphDriver/CH58x_sys.c:347 (discriminator 1)
    } while(--i);
200002c4:	157d                	addi	a0,a0,-1
200002c6:	fd75                	bnez	a0,200002c2 <mDelayuS+0x6>
E:/Project/PlumBL/drv/ch58x_drivers/StdPeriphDriver/CH58x_sys.c:348
}
200002c8:	8082                	ret

200002ca <mDelaymS>:
mDelaymS():
E:/Project/PlumBL/drv/ch58x_drivers/StdPeriphDriver/CH58x_sys.c:361
 *
 * @return  none
 */
__HIGH_CODE
void mDelaymS(uint16_t t)
{
200002ca:	1141                	addi	sp,sp,-16
200002cc:	c422                	sw	s0,8(sp)
200002ce:	c226                	sw	s1,4(sp)
200002d0:	c606                	sw	ra,12(sp)
200002d2:	84aa                	mv	s1,a0
E:/Project/PlumBL/drv/ch58x_drivers/StdPeriphDriver/CH58x_sys.c:364
    uint16_t i;

    for(i = 0; i < t; i++)
200002d4:	4401                	li	s0,0
E:/Project/PlumBL/drv/ch58x_drivers/StdPeriphDriver/CH58x_sys.c:364 (discriminator 1)
200002d6:	00941763          	bne	s0,s1,200002e4 <mDelaymS+0x1a>
E:/Project/PlumBL/drv/ch58x_drivers/StdPeriphDriver/CH58x_sys.c:368
    {
        mDelayuS(1000);
    }
}
200002da:	40b2                	lw	ra,12(sp)
200002dc:	4422                	lw	s0,8(sp)
200002de:	4492                	lw	s1,4(sp)
200002e0:	0141                	addi	sp,sp,16
200002e2:	8082                	ret
E:/Project/PlumBL/drv/ch58x_drivers/StdPeriphDriver/CH58x_sys.c:364 (discriminator 3)
    for(i = 0; i < t; i++)
200002e4:	0405                	addi	s0,s0,1
E:/Project/PlumBL/drv/ch58x_drivers/StdPeriphDriver/CH58x_sys.c:366 (discriminator 3)
        mDelayuS(1000);
200002e6:	3e800513          	li	a0,1000
E:/Project/PlumBL/drv/ch58x_drivers/StdPeriphDriver/CH58x_sys.c:364 (discriminator 3)
    for(i = 0; i < t; i++)
200002ea:	0442                	slli	s0,s0,0x10
E:/Project/PlumBL/drv/ch58x_drivers/StdPeriphDriver/CH58x_sys.c:366 (discriminator 3)
        mDelayuS(1000);
200002ec:	3fc1                	jal	200002bc <mDelayuS>
E:/Project/PlumBL/drv/ch58x_drivers/StdPeriphDriver/CH58x_sys.c:364 (discriminator 3)
    for(i = 0; i < t; i++)
200002ee:	8041                	srli	s0,s0,0x10
200002f0:	b7dd                	j	200002d6 <mDelaymS+0xc>

200002f2 <USB_IRQHandler>:
USB_IRQHandler():
E:/Project/PlumBL/CherryUSB/port/ch32/usb_ch58x_dc_usbfs.c:447
 * @retval           None
 */
__attribute__((interrupt("WCH-Interrupt-fast")))
__attribute__((section(".highcode"))) void
USBD_IRQHandler(void)
{
200002f2:	1101                	addi	sp,sp,-32
E:/Project/PlumBL/CherryUSB/port/ch32/usb_ch58x_dc_usbfs.c:448
    volatile uint8_t intflag = 0;
200002f4:	000107a3          	sb	zero,15(sp)
E:/Project/PlumBL/CherryUSB/port/ch32/usb_ch58x_dc_usbfs.c:447
{
200002f8:	ce22                	sw	s0,28(sp)
200002fa:	cc26                	sw	s1,24(sp)
200002fc:	ca4a                	sw	s2,20(sp)
200002fe:	c84e                	sw	s3,16(sp)
E:/Project/PlumBL/CherryUSB/port/ch32/usb_ch58x_dc_usbfs.c:449
    intflag = CH58x_USBFS_DEV->USB_INT_FG;
20000300:	40008437          	lui	s0,0x40008
20000304:	00644783          	lbu	a5,6(s0) # 40008006 <_eusrstack+0x2000000a>
20000308:	0ff7f793          	andi	a5,a5,255
2000030c:	00f107a3          	sb	a5,15(sp)
E:/Project/PlumBL/CherryUSB/port/ch32/usb_ch58x_dc_usbfs.c:451

    if (intflag & RB_UIF_TRANSFER) {
20000310:	00f14783          	lbu	a5,15(sp)
20000314:	8b89                	andi	a5,a5,2
20000316:	34078563          	beqz	a5,20000660 <USB_IRQHandler+0x36e>
E:/Project/PlumBL/CherryUSB/port/ch32/usb_ch58x_dc_usbfs.c:452
        if ((CH58x_USBFS_DEV->USB_INT_ST & MASK_UIS_TOKEN) != MASK_UIS_TOKEN) {
2000031a:	00744783          	lbu	a5,7(s0)
2000031e:	03000713          	li	a4,48
20000322:	0307f793          	andi	a5,a5,48
20000326:	08e78863          	beq	a5,a4,200003b6 <USB_IRQHandler+0xc4>
E:/Project/PlumBL/CherryUSB/port/ch32/usb_ch58x_dc_usbfs.c:453
            uint8_t epid = ((CH58x_USBFS_DEV->USB_INT_ST & (MASK_UIS_TOKEN | MASK_UIS_ENDP)) & 0x0f);
2000032a:	00744483          	lbu	s1,7(s0)
E:/Project/PlumBL/CherryUSB/port/ch32/usb_ch58x_dc_usbfs.c:454
            switch ((CH58x_USBFS_DEV->USB_INT_ST & (MASK_UIS_TOKEN | MASK_UIS_ENDP)) & 0xf0) {
2000032e:	00744783          	lbu	a5,7(s0)
E:/Project/PlumBL/CherryUSB/port/ch32/usb_ch58x_dc_usbfs.c:453
            uint8_t epid = ((CH58x_USBFS_DEV->USB_INT_ST & (MASK_UIS_TOKEN | MASK_UIS_ENDP)) & 0x0f);
20000332:	88bd                	andi	s1,s1,15
E:/Project/PlumBL/CherryUSB/port/ch32/usb_ch58x_dc_usbfs.c:454
            switch ((CH58x_USBFS_DEV->USB_INT_ST & (MASK_UIS_TOKEN | MASK_UIS_ENDP)) & 0xf0) {
20000334:	0307f793          	andi	a5,a5,48
20000338:	20078663          	beqz	a5,20000544 <USB_IRQHandler+0x252>
2000033c:	02000713          	li	a4,32
20000340:	06e79663          	bne	a5,a4,200003ac <USB_IRQHandler+0xba>
E:/Project/PlumBL/CherryUSB/port/ch32/usb_ch58x_dc_usbfs.c:456
                case UIS_TOKEN_IN:
                    if (epid == 0) {
20000344:	00002917          	auipc	s2,0x2
20000348:	43890913          	addi	s2,s2,1080 # 2000277c <usb_dc_cfg>
2000034c:	14049363          	bnez	s1,20000492 <USB_IRQHandler+0x1a0>
E:/Project/PlumBL/CherryUSB/port/ch32/usb_ch58x_dc_usbfs.c:460
                        /**
                         * IN  The host takes away the data that has been stored in FIFO
                         */
                        switch (usb_dc_cfg.setup.bmRequestType >> USB_REQUEST_DIR_SHIFT) {
20000350:	00002797          	auipc	a5,0x2
20000354:	5207c783          	lbu	a5,1312(a5) # 20002870 <usb_dc_cfg+0xf4>
20000358:	839d                	srli	a5,a5,0x7
2000035a:	cfed                	beqz	a5,20000454 <USB_IRQHandler+0x162>
E:/Project/PlumBL/CherryUSB/port/ch32/usb_ch58x_dc_usbfs.c:463
                            case 1:
                                /*!< Get */
                                CH58x_USBFS_DEV->UEP0_CTRL ^= RB_UEP_T_TOG;
2000035c:	02244783          	lbu	a5,34(s0)
20000360:	0407c793          	xori	a5,a5,64
20000364:	02f40123          	sb	a5,34(s0)
E:/Project/PlumBL/CherryUSB/port/ch32/usb_ch58x_dc_usbfs.c:469
                                /**
                                 * Here is to take away the last data, and the IN interrupt will be triggered only after it is successfully taken away.
                                 * Therefore, the status of the in endpoint is set to NAK here. If there is data transmission,
                                 * the endpoint status will be set to ack again in the in handler of EP0.
                                 */
                                EPn_SET_TX_NAK(0);
20000368:	02244783          	lbu	a5,34(s0)
2000036c:	0fc7f793          	andi	a5,a5,252
20000370:	0027e793          	ori	a5,a5,2
20000374:	02f40123          	sb	a5,34(s0)
E:/Project/PlumBL/CherryUSB/port/ch32/usb_ch58x_dc_usbfs.c:472

                                /*!< IN */
                                if (usb_dc_cfg.ep_in[0].xfer_len > usb_dc_cfg.ep_in[0].mps) {
20000378:	01492783          	lw	a5,20(s2)
2000037c:	00002597          	auipc	a1,0x2
20000380:	4045c583          	lbu	a1,1028(a1) # 20002780 <usb_dc_cfg+0x4>
20000384:	0af5fc63          	bgeu	a1,a5,2000043c <USB_IRQHandler+0x14a>
E:/Project/PlumBL/CherryUSB/port/ch32/usb_ch58x_dc_usbfs.c:473
                                    usb_dc_cfg.ep_in[0].xfer_len -= usb_dc_cfg.ep_in[0].mps;
20000388:	8f8d                	sub	a5,a5,a1
2000038a:	00002717          	auipc	a4,0x2
2000038e:	40f72323          	sw	a5,1030(a4) # 20002790 <usb_dc_cfg+0x14>
E:/Project/PlumBL/CherryUSB/port/ch32/usb_ch58x_dc_usbfs.c:474
                                    usb_dc_cfg.ep_in[0].actual_xfer_len += usb_dc_cfg.ep_in[0].mps;
20000392:	01892783          	lw	a5,24(s2)
20000396:	95be                	add	a1,a1,a5
20000398:	00002797          	auipc	a5,0x2
2000039c:	3eb7ae23          	sw	a1,1020(a5) # 20002794 <usb_dc_cfg+0x18>
E:/Project/PlumBL/CherryUSB/port/ch32/usb_ch58x_dc_usbfs.c:479
                                    usbd_event_ep_in_complete_handler(0 | 0x80, usb_dc_cfg.ep_in[0].actual_xfer_len);
                                } else {
                                    usb_dc_cfg.ep_in[0].actual_xfer_len += usb_dc_cfg.ep_in[0].xfer_len;
                                    usb_dc_cfg.ep_in[0].xfer_len = 0;
                                    usbd_event_ep_in_complete_handler(0 | 0x80, usb_dc_cfg.ep_in[0].actual_xfer_len);
200003a0:	08000513          	li	a0,128
200003a4:	e0002097          	auipc	ra,0xe0002
200003a8:	aa0080e7          	jalr	-1376(ra) # 1e44 <usbd_event_ep_in_complete_handler>
E:/Project/PlumBL/CherryUSB/port/ch32/usb_ch58x_dc_usbfs.c:574
                    }
                    break;
                default:
                    break;
            }
            CH58x_USBFS_DEV->USB_INT_FG = RB_UIF_TRANSFER;
200003ac:	400087b7          	lui	a5,0x40008
200003b0:	4709                	li	a4,2
200003b2:	00e78323          	sb	a4,6(a5) # 40008006 <_eusrstack+0x2000000a>
E:/Project/PlumBL/CherryUSB/port/ch32/usb_ch58x_dc_usbfs.c:577
        }

        if (CH58x_USBFS_DEV->USB_INT_ST & RB_UIS_SETUP_ACT) {
200003b6:	40008437          	lui	s0,0x40008
200003ba:	00744783          	lbu	a5,7(s0) # 40008007 <_eusrstack+0x2000000b>
200003be:	07e2                	slli	a5,a5,0x18
200003c0:	87e1                	srai	a5,a5,0x18
200003c2:	0607d663          	bgez	a5,2000042e <USB_IRQHandler+0x13c>
E:/Project/PlumBL/CherryUSB/port/ch32/usb_ch58x_dc_usbfs.c:586
             * If it is sent, the data1 packet will be sent.
             * If it is received, the data1 packet is expected to be received.
             * If it is in, the host will send the data1 out packet to complete the status phase after the in completes.
             * If it is out, the host will send the data1 in packet to complete the status phase after the out completes.
             */
            CH58x_USBFS_DEV->UEP0_CTRL = RB_UEP_R_TOG | RB_UEP_T_TOG | UEP_T_RES_NAK;
200003c6:	fc200793          	li	a5,-62
200003ca:	02f40123          	sb	a5,34(s0)
E:/Project/PlumBL/CherryUSB/port/ch32/usb_ch58x_dc_usbfs.c:588
            /*!< get setup packet */
            usb_dc_cfg.setup = GET_SETUP_PACKET(usb_dc_cfg.ep_out[0].ep_ram_addr);
200003ce:	00002497          	auipc	s1,0x2
200003d2:	3ae48493          	addi	s1,s1,942 # 2000277c <usb_dc_cfg>
200003d6:	0804a583          	lw	a1,128(s1)
200003da:	4621                	li	a2,8
200003dc:	00002517          	auipc	a0,0x2
200003e0:	49450513          	addi	a0,a0,1172 # 20002870 <usb_dc_cfg+0xf4>
200003e4:	e0002097          	auipc	ra,0xe0002
200003e8:	4f0080e7          	jalr	1264(ra) # 28d4 <memcpy>
E:/Project/PlumBL/CherryUSB/port/ch32/usb_ch58x_dc_usbfs.c:589
            if (usb_dc_cfg.setup.bmRequestType >> USB_REQUEST_DIR_SHIFT == 0) {
200003ec:	0f448783          	lb	a5,244(s1)
200003f0:	0007ca63          	bltz	a5,20000404 <USB_IRQHandler+0x112>
E:/Project/PlumBL/CherryUSB/port/ch32/usb_ch58x_dc_usbfs.c:596
                 * Ep0 The next in must be the status stage.
                 * The device must reply to the host data 0 length packet.
                 * Here, set the transmission length to 0 and the transmission status to ACK,
                 * and wait for the host to send the in token to retrieve
                 */
                EPn_SET_TX_LEN(0, 0);
200003f4:	02040023          	sb	zero,32(s0)
E:/Project/PlumBL/CherryUSB/port/ch32/usb_ch58x_dc_usbfs.c:597
                EPn_SET_TX_VALID(0);
200003f8:	02244783          	lbu	a5,34(s0)
200003fc:	0fc7f793          	andi	a5,a5,252
20000400:	02f40123          	sb	a5,34(s0)
E:/Project/PlumBL/CherryUSB/port/ch32/usb_ch58x_dc_usbfs.c:599 (discriminator 1)
            }
            EPn_SET_RX_NAK(0);
20000404:	40008437          	lui	s0,0x40008
20000408:	02244783          	lbu	a5,34(s0) # 40008022 <_eusrstack+0x20000026>
E:/Project/PlumBL/CherryUSB/port/ch32/usb_ch58x_dc_usbfs.c:600 (discriminator 1)
            usbd_event_ep0_setup_complete_handler((uint8_t *)&(usb_dc_cfg.setup));
2000040c:	00002517          	auipc	a0,0x2
20000410:	46450513          	addi	a0,a0,1124 # 20002870 <usb_dc_cfg+0xf4>
E:/Project/PlumBL/CherryUSB/port/ch32/usb_ch58x_dc_usbfs.c:599 (discriminator 1)
            EPn_SET_RX_NAK(0);
20000414:	0f37f793          	andi	a5,a5,243
20000418:	0087e793          	ori	a5,a5,8
2000041c:	02f40123          	sb	a5,34(s0)
E:/Project/PlumBL/CherryUSB/port/ch32/usb_ch58x_dc_usbfs.c:600 (discriminator 1)
            usbd_event_ep0_setup_complete_handler((uint8_t *)&(usb_dc_cfg.setup));
20000420:	e0002097          	auipc	ra,0xe0002
20000424:	92e080e7          	jalr	-1746(ra) # 1d4e <usbd_event_ep0_setup_complete_handler>
E:/Project/PlumBL/CherryUSB/port/ch32/usb_ch58x_dc_usbfs.c:601 (discriminator 1)
            CH58x_USBFS_DEV->USB_INT_FG = RB_UIF_TRANSFER;
20000428:	4789                	li	a5,2
E:/Project/PlumBL/CherryUSB/port/ch32/usb_ch58x_dc_usbfs.c:618
        } else {
            /*!< Wake up */
        }
        CH58x_USBFS_DEV->USB_INT_FG = RB_UIF_SUSPEND;
    } else {
        CH58x_USBFS_DEV->USB_INT_FG = intflag;
2000042a:	00f40323          	sb	a5,6(s0)
E:/Project/PlumBL/CherryUSB/port/ch32/usb_ch58x_dc_usbfs.c:620
    }
}
2000042e:	4472                	lw	s0,28(sp)
20000430:	44e2                	lw	s1,24(sp)
20000432:	4952                	lw	s2,20(sp)
20000434:	49c2                	lw	s3,16(sp)
20000436:	6105                	addi	sp,sp,32
20000438:	30200073          	mret
E:/Project/PlumBL/CherryUSB/port/ch32/usb_ch58x_dc_usbfs.c:477
                                    usb_dc_cfg.ep_in[0].actual_xfer_len += usb_dc_cfg.ep_in[0].xfer_len;
2000043c:	01892583          	lw	a1,24(s2)
20000440:	95be                	add	a1,a1,a5
20000442:	00002797          	auipc	a5,0x2
20000446:	34b7a923          	sw	a1,850(a5) # 20002794 <usb_dc_cfg+0x18>
E:/Project/PlumBL/CherryUSB/port/ch32/usb_ch58x_dc_usbfs.c:478
                                    usb_dc_cfg.ep_in[0].xfer_len = 0;
2000044a:	00002797          	auipc	a5,0x2
2000044e:	3407a323          	sw	zero,838(a5) # 20002790 <usb_dc_cfg+0x14>
20000452:	b7b9                	j	200003a0 <USB_IRQHandler+0xae>
E:/Project/PlumBL/CherryUSB/port/ch32/usb_ch58x_dc_usbfs.c:484 (discriminator 1)
                                switch (usb_dc_cfg.setup.bRequest) {
20000454:	00002717          	auipc	a4,0x2
20000458:	41d74703          	lbu	a4,1053(a4) # 20002871 <usb_dc_cfg+0xf5>
2000045c:	4795                	li	a5,5
2000045e:	00f71b63          	bne	a4,a5,20000474 <USB_IRQHandler+0x182>
E:/Project/PlumBL/CherryUSB/port/ch32/usb_ch58x_dc_usbfs.c:487
                                        CH58x_USBFS_DEV->USB_DEV_AD = (CH58x_USBFS_DEV->USB_DEV_AD & RB_UDA_GP_BIT) | usb_dc_cfg.address;
20000462:	00344783          	lbu	a5,3(s0)
20000466:	00094703          	lbu	a4,0(s2)
2000046a:	0807f793          	andi	a5,a5,128
2000046e:	8fd9                	or	a5,a5,a4
20000470:	00f401a3          	sb	a5,3(s0)
E:/Project/PlumBL/CherryUSB/port/ch32/usb_ch58x_dc_usbfs.c:501
                                        EPn_SET_TX_NAK(0);
20000474:	02244783          	lbu	a5,34(s0)
20000478:	0fc7f793          	andi	a5,a5,252
2000047c:	0027e793          	ori	a5,a5,2
20000480:	02f40123          	sb	a5,34(s0)
E:/Project/PlumBL/CherryUSB/port/ch32/usb_ch58x_dc_usbfs.c:546
                            EPn_SET_RX_VALID(0);
20000484:	02244783          	lbu	a5,34(s0)
20000488:	0f37f793          	andi	a5,a5,243
2000048c:	02f40123          	sb	a5,34(s0)
20000490:	bf31                	j	200003ac <USB_IRQHandler+0xba>
E:/Project/PlumBL/CherryUSB/port/ch32/usb_ch58x_dc_usbfs.c:508
                        if (epid == 4) {
20000492:	4791                	li	a5,4
20000494:	00f49863          	bne	s1,a5,200004a4 <USB_IRQHandler+0x1b2>
E:/Project/PlumBL/CherryUSB/port/ch32/usb_ch58x_dc_usbfs.c:509
                            CH58x_USBFS_DEV->UEP4_CTRL ^= RB_UEP_T_TOG;
20000498:	03244783          	lbu	a5,50(s0)
2000049c:	0407c793          	xori	a5,a5,64
200004a0:	02f40923          	sb	a5,50(s0)
E:/Project/PlumBL/CherryUSB/port/ch32/usb_ch58x_dc_usbfs.c:511
                        EPn_SET_TX_NAK(epid);
200004a4:	4415                	li	s0,5
200004a6:	0284d433          	divu	s0,s1,s0
200004aa:	03000793          	li	a5,48
200004ae:	02f40433          	mul	s0,s0,a5
200004b2:	00249793          	slli	a5,s1,0x2
200004b6:	943e                	add	s0,s0,a5
200004b8:	400087b7          	lui	a5,0x40008
200004bc:	02278793          	addi	a5,a5,34 # 40008022 <_eusrstack+0x20000026>
200004c0:	943e                	add	s0,s0,a5
200004c2:	00044783          	lbu	a5,0(s0)
200004c6:	0fc7f793          	andi	a5,a5,252
200004ca:	0027e793          	ori	a5,a5,2
200004ce:	00f40023          	sb	a5,0(s0)
E:/Project/PlumBL/CherryUSB/port/ch32/usb_ch58x_dc_usbfs.c:512
                        if (usb_dc_cfg.ep_in[epid].xfer_len > usb_dc_cfg.ep_in[epid].mps) {
200004d2:	47e1                	li	a5,24
200004d4:	02f487b3          	mul	a5,s1,a5
200004d8:	97ca                	add	a5,a5,s2
200004da:	4bd8                	lw	a4,20(a5)
200004dc:	0047c603          	lbu	a2,4(a5)
200004e0:	4f94                	lw	a3,24(a5)
200004e2:	04e67963          	bgeu	a2,a4,20000534 <USB_IRQHandler+0x242>
E:/Project/PlumBL/CherryUSB/port/ch32/usb_ch58x_dc_usbfs.c:514
                            usb_dc_cfg.ep_in[epid].xfer_buf += usb_dc_cfg.ep_in[epid].mps;
200004e6:	4b8c                	lw	a1,16(a5)
E:/Project/PlumBL/CherryUSB/port/ch32/usb_ch58x_dc_usbfs.c:515
                            usb_dc_cfg.ep_in[epid].xfer_len -= usb_dc_cfg.ep_in[epid].mps;
200004e8:	8f11                	sub	a4,a4,a2
E:/Project/PlumBL/CherryUSB/port/ch32/usb_ch58x_dc_usbfs.c:516
                            usb_dc_cfg.ep_in[epid].actual_xfer_len += usb_dc_cfg.ep_in[epid].mps;
200004ea:	96b2                	add	a3,a3,a2
E:/Project/PlumBL/CherryUSB/port/ch32/usb_ch58x_dc_usbfs.c:514
                            usb_dc_cfg.ep_in[epid].xfer_buf += usb_dc_cfg.ep_in[epid].mps;
200004ec:	95b2                	add	a1,a1,a2
200004ee:	cb8c                	sw	a1,16(a5)
E:/Project/PlumBL/CherryUSB/port/ch32/usb_ch58x_dc_usbfs.c:515
                            usb_dc_cfg.ep_in[epid].xfer_len -= usb_dc_cfg.ep_in[epid].mps;
200004f0:	cbd8                	sw	a4,20(a5)
E:/Project/PlumBL/CherryUSB/port/ch32/usb_ch58x_dc_usbfs.c:516
                            usb_dc_cfg.ep_in[epid].actual_xfer_len += usb_dc_cfg.ep_in[epid].mps;
200004f2:	cf94                	sw	a3,24(a5)
E:/Project/PlumBL/CherryUSB/port/ch32/usb_ch58x_dc_usbfs.c:517
                            if (usb_dc_cfg.ep_in[epid].xfer_len > usb_dc_cfg.ep_in[epid].mps) {
200004f4:	4788                	lw	a0,8(a5)
200004f6:	02e67663          	bgeu	a2,a4,20000522 <USB_IRQHandler+0x230>
E:/Project/PlumBL/CherryUSB/port/ch32/usb_ch58x_dc_usbfs.c:520
                                memcpy(usb_dc_cfg.ep_in[epid].ep_ram_addr, usb_dc_cfg.ep_in[epid].xfer_buf, usb_dc_cfg.ep_in[epid].xfer_len);
200004fa:	e0002097          	auipc	ra,0xe0002
200004fe:	3da080e7          	jalr	986(ra) # 28d4 <memcpy>
E:/Project/PlumBL/CherryUSB/port/ch32/usb_ch58x_dc_usbfs.c:522
                            if (usb_dc_cfg.ep_in[epid].eptype != USB_ENDPOINT_TYPE_ISOCHRONOUS) {
20000502:	47e1                	li	a5,24
20000504:	02f484b3          	mul	s1,s1,a5
20000508:	4785                	li	a5,1
2000050a:	94ca                	add	s1,s1,s2
2000050c:	0054c703          	lbu	a4,5(s1)
20000510:	00f70b63          	beq	a4,a5,20000526 <USB_IRQHandler+0x234>
E:/Project/PlumBL/CherryUSB/port/ch32/usb_ch58x_dc_usbfs.c:523
                                EPn_SET_TX_VALID(epid);
20000514:	00044783          	lbu	a5,0(s0)
20000518:	0fc7f793          	andi	a5,a5,252
E:/Project/PlumBL/CherryUSB/port/ch32/usb_ch58x_dc_usbfs.c:525
                                EPn_SET_TX_ISO_VALID(epid);
2000051c:	00f40023          	sb	a5,0(s0)
20000520:	b571                	j	200003ac <USB_IRQHandler+0xba>
E:/Project/PlumBL/CherryUSB/port/ch32/usb_ch58x_dc_usbfs.c:520
                                memcpy(usb_dc_cfg.ep_in[epid].ep_ram_addr, usb_dc_cfg.ep_in[epid].xfer_buf, usb_dc_cfg.ep_in[epid].xfer_len);
20000522:	863a                	mv	a2,a4
20000524:	bfd9                	j	200004fa <USB_IRQHandler+0x208>
E:/Project/PlumBL/CherryUSB/port/ch32/usb_ch58x_dc_usbfs.c:525
                                EPn_SET_TX_ISO_VALID(epid);
20000526:	00044783          	lbu	a5,0(s0)
2000052a:	0fc7f793          	andi	a5,a5,252
2000052e:	0017e793          	ori	a5,a5,1
20000532:	b7ed                	j	2000051c <USB_IRQHandler+0x22a>
E:/Project/PlumBL/CherryUSB/port/ch32/usb_ch58x_dc_usbfs.c:528
                            usb_dc_cfg.ep_in[epid].actual_xfer_len += usb_dc_cfg.ep_in[epid].xfer_len;
20000534:	00d705b3          	add	a1,a4,a3
20000538:	cf8c                	sw	a1,24(a5)
E:/Project/PlumBL/CherryUSB/port/ch32/usb_ch58x_dc_usbfs.c:529
                            usb_dc_cfg.ep_in[epid].xfer_len = 0;
2000053a:	0007aa23          	sw	zero,20(a5)
E:/Project/PlumBL/CherryUSB/port/ch32/usb_ch58x_dc_usbfs.c:530
                            usbd_event_ep_in_complete_handler(epid | 0x80, usb_dc_cfg.ep_in[epid].actual_xfer_len);
2000053e:	0804e513          	ori	a0,s1,128
20000542:	b58d                	j	200003a4 <USB_IRQHandler+0xb2>
E:/Project/PlumBL/CherryUSB/port/ch32/usb_ch58x_dc_usbfs.c:535
                    if (epid == 0) {
20000544:	ecb1                	bnez	s1,200005a0 <USB_IRQHandler+0x2ae>
E:/Project/PlumBL/CherryUSB/port/ch32/usb_ch58x_dc_usbfs.c:537
                        CH58x_USBFS_DEV->UEP0_CTRL ^= RB_UEP_R_TOG;
20000546:	02244783          	lbu	a5,34(s0)
E:/Project/PlumBL/CherryUSB/port/ch32/usb_ch58x_dc_usbfs.c:539
                        memcpy(usb_dc_cfg.ep_out[epid].xfer_buf, usb_dc_cfg.ep_out[epid].ep_ram_addr, read_count);
2000054a:	00002917          	auipc	s2,0x2
2000054e:	23290913          	addi	s2,s2,562 # 2000277c <usb_dc_cfg>
E:/Project/PlumBL/CherryUSB/port/ch32/usb_ch58x_dc_usbfs.c:537
                        CH58x_USBFS_DEV->UEP0_CTRL ^= RB_UEP_R_TOG;
20000552:	0807c793          	xori	a5,a5,128
20000556:	02f40123          	sb	a5,34(s0)
E:/Project/PlumBL/CherryUSB/port/ch32/usb_ch58x_dc_usbfs.c:538
                        uint32_t read_count = EPn_GET_RX_LEN(0);
2000055a:	00844483          	lbu	s1,8(s0)
E:/Project/PlumBL/CherryUSB/port/ch32/usb_ch58x_dc_usbfs.c:539
                        memcpy(usb_dc_cfg.ep_out[epid].xfer_buf, usb_dc_cfg.ep_out[epid].ep_ram_addr, read_count);
2000055e:	08092583          	lw	a1,128(s2)
20000562:	08892503          	lw	a0,136(s2)
E:/Project/PlumBL/CherryUSB/port/ch32/usb_ch58x_dc_usbfs.c:538
                        uint32_t read_count = EPn_GET_RX_LEN(0);
20000566:	0ff4f493          	andi	s1,s1,255
E:/Project/PlumBL/CherryUSB/port/ch32/usb_ch58x_dc_usbfs.c:539
                        memcpy(usb_dc_cfg.ep_out[epid].xfer_buf, usb_dc_cfg.ep_out[epid].ep_ram_addr, read_count);
2000056a:	8626                	mv	a2,s1
2000056c:	e0002097          	auipc	ra,0xe0002
20000570:	368080e7          	jalr	872(ra) # 28d4 <memcpy>
E:/Project/PlumBL/CherryUSB/port/ch32/usb_ch58x_dc_usbfs.c:541
                        usb_dc_cfg.ep_out[0].actual_xfer_len += read_count;
20000574:	09092583          	lw	a1,144(s2)
E:/Project/PlumBL/CherryUSB/port/ch32/usb_ch58x_dc_usbfs.c:543
                        usbd_event_ep_out_complete_handler(0x00, usb_dc_cfg.ep_out[0].actual_xfer_len);
20000578:	4501                	li	a0,0
E:/Project/PlumBL/CherryUSB/port/ch32/usb_ch58x_dc_usbfs.c:541
                        usb_dc_cfg.ep_out[0].actual_xfer_len += read_count;
2000057a:	95a6                	add	a1,a1,s1
2000057c:	00002797          	auipc	a5,0x2
20000580:	28b7a823          	sw	a1,656(a5) # 2000280c <usb_dc_cfg+0x90>
E:/Project/PlumBL/CherryUSB/port/ch32/usb_ch58x_dc_usbfs.c:542
                        usb_dc_cfg.ep_out[0].xfer_len -= read_count;
20000584:	08c92783          	lw	a5,140(s2)
20000588:	8f85                	sub	a5,a5,s1
2000058a:	00002717          	auipc	a4,0x2
2000058e:	26f72f23          	sw	a5,638(a4) # 20002808 <usb_dc_cfg+0x8c>
E:/Project/PlumBL/CherryUSB/port/ch32/usb_ch58x_dc_usbfs.c:543
                        usbd_event_ep_out_complete_handler(0x00, usb_dc_cfg.ep_out[0].actual_xfer_len);
20000592:	e0002097          	auipc	ra,0xe0002
20000596:	8d2080e7          	jalr	-1838(ra) # 1e64 <usbd_event_ep_out_complete_handler>
E:/Project/PlumBL/CherryUSB/port/ch32/usb_ch58x_dc_usbfs.c:544
                        if (read_count == 0) {
2000059a:	e00499e3          	bnez	s1,200003ac <USB_IRQHandler+0xba>
2000059e:	b5dd                	j	20000484 <USB_IRQHandler+0x192>
E:/Project/PlumBL/CherryUSB/port/ch32/usb_ch58x_dc_usbfs.c:549
                        if ((CH58x_USBFS_DEV->USB_INT_ST) & RB_UIS_TOG_OK) {
200005a0:	00744783          	lbu	a5,7(s0)
200005a4:	0407f793          	andi	a5,a5,64
200005a8:	e00782e3          	beqz	a5,200003ac <USB_IRQHandler+0xba>
E:/Project/PlumBL/CherryUSB/port/ch32/usb_ch58x_dc_usbfs.c:550
                            if (epid == 4) {
200005ac:	4791                	li	a5,4
200005ae:	00f49863          	bne	s1,a5,200005be <USB_IRQHandler+0x2cc>
E:/Project/PlumBL/CherryUSB/port/ch32/usb_ch58x_dc_usbfs.c:551
                                CH58x_USBFS_DEV->UEP4_CTRL ^= RB_UEP_R_TOG;
200005b2:	03244783          	lbu	a5,50(s0)
200005b6:	0807c793          	xori	a5,a5,128
200005ba:	02f40923          	sb	a5,50(s0)
E:/Project/PlumBL/CherryUSB/port/ch32/usb_ch58x_dc_usbfs.c:554
                            memcpy(usb_dc_cfg.ep_out[epid].xfer_buf, usb_dc_cfg.ep_out[epid].ep_ram_addr, read_count);
200005be:	4461                	li	s0,24
200005c0:	028487b3          	mul	a5,s1,s0
E:/Project/PlumBL/CherryUSB/port/ch32/usb_ch58x_dc_usbfs.c:553
                            uint32_t read_count = EPn_GET_RX_LEN(epid);
200005c4:	400089b7          	lui	s3,0x40008
200005c8:	0089c903          	lbu	s2,8(s3) # 40008008 <_eusrstack+0x2000000c>
E:/Project/PlumBL/CherryUSB/port/ch32/usb_ch58x_dc_usbfs.c:554
                            memcpy(usb_dc_cfg.ep_out[epid].xfer_buf, usb_dc_cfg.ep_out[epid].ep_ram_addr, read_count);
200005cc:	00002417          	auipc	s0,0x2
200005d0:	1b040413          	addi	s0,s0,432 # 2000277c <usb_dc_cfg>
E:/Project/PlumBL/CherryUSB/port/ch32/usb_ch58x_dc_usbfs.c:553
                            uint32_t read_count = EPn_GET_RX_LEN(epid);
200005d4:	0ff97913          	andi	s2,s2,255
E:/Project/PlumBL/CherryUSB/port/ch32/usb_ch58x_dc_usbfs.c:554
                            memcpy(usb_dc_cfg.ep_out[epid].xfer_buf, usb_dc_cfg.ep_out[epid].ep_ram_addr, read_count);
200005d8:	864a                	mv	a2,s2
200005da:	943e                	add	s0,s0,a5
200005dc:	08042583          	lw	a1,128(s0)
200005e0:	08842503          	lw	a0,136(s0)
200005e4:	e0002097          	auipc	ra,0xe0002
200005e8:	2f0080e7          	jalr	752(ra) # 28d4 <memcpy>
E:/Project/PlumBL/CherryUSB/port/ch32/usb_ch58x_dc_usbfs.c:555
                            usb_dc_cfg.ep_out[epid].xfer_buf += read_count;
200005ec:	08842783          	lw	a5,136(s0)
E:/Project/PlumBL/CherryUSB/port/ch32/usb_ch58x_dc_usbfs.c:556
                            usb_dc_cfg.ep_out[epid].actual_xfer_len += read_count;
200005f0:	09042583          	lw	a1,144(s0)
E:/Project/PlumBL/CherryUSB/port/ch32/usb_ch58x_dc_usbfs.c:559
                            if ((read_count < usb_dc_cfg.ep_out[epid].mps) || (usb_dc_cfg.ep_out[epid].xfer_len == 0)) {
200005f4:	07c44703          	lbu	a4,124(s0)
E:/Project/PlumBL/CherryUSB/port/ch32/usb_ch58x_dc_usbfs.c:555
                            usb_dc_cfg.ep_out[epid].xfer_buf += read_count;
200005f8:	97ca                	add	a5,a5,s2
200005fa:	08f42423          	sw	a5,136(s0)
E:/Project/PlumBL/CherryUSB/port/ch32/usb_ch58x_dc_usbfs.c:557
                            usb_dc_cfg.ep_out[epid].xfer_len -= read_count;
200005fe:	08c42783          	lw	a5,140(s0)
E:/Project/PlumBL/CherryUSB/port/ch32/usb_ch58x_dc_usbfs.c:556
                            usb_dc_cfg.ep_out[epid].actual_xfer_len += read_count;
20000602:	95ca                	add	a1,a1,s2
20000604:	08b42823          	sw	a1,144(s0)
E:/Project/PlumBL/CherryUSB/port/ch32/usb_ch58x_dc_usbfs.c:557
                            usb_dc_cfg.ep_out[epid].xfer_len -= read_count;
20000608:	412787b3          	sub	a5,a5,s2
2000060c:	08f42623          	sw	a5,140(s0)
E:/Project/PlumBL/CherryUSB/port/ch32/usb_ch58x_dc_usbfs.c:559
                            if ((read_count < usb_dc_cfg.ep_out[epid].mps) || (usb_dc_cfg.ep_out[epid].xfer_len == 0)) {
20000610:	00e96363          	bltu	s2,a4,20000616 <USB_IRQHandler+0x324>
E:/Project/PlumBL/CherryUSB/port/ch32/usb_ch58x_dc_usbfs.c:559 (discriminator 1)
20000614:	e799                	bnez	a5,20000622 <USB_IRQHandler+0x330>
E:/Project/PlumBL/CherryUSB/port/ch32/usb_ch58x_dc_usbfs.c:560
                                usbd_event_ep_out_complete_handler(((epid)&0x7f), usb_dc_cfg.ep_out[epid].actual_xfer_len);
20000616:	8526                	mv	a0,s1
20000618:	e0002097          	auipc	ra,0xe0002
2000061c:	84c080e7          	jalr	-1972(ra) # 1e64 <usbd_event_ep_out_complete_handler>
20000620:	b371                	j	200003ac <USB_IRQHandler+0xba>
E:/Project/PlumBL/CherryUSB/port/ch32/usb_ch58x_dc_usbfs.c:562
                                if (usb_dc_cfg.ep_out[epid].eptype != USB_ENDPOINT_TYPE_ISOCHRONOUS) {
20000622:	4795                	li	a5,5
20000624:	02f4d7b3          	divu	a5,s1,a5
20000628:	03000713          	li	a4,48
2000062c:	048a                	slli	s1,s1,0x2
2000062e:	02298993          	addi	s3,s3,34
20000632:	02e787b3          	mul	a5,a5,a4
20000636:	07d44703          	lbu	a4,125(s0)
2000063a:	94be                	add	s1,s1,a5
2000063c:	4785                	li	a5,1
2000063e:	94ce                	add	s1,s1,s3
20000640:	00f70963          	beq	a4,a5,20000652 <USB_IRQHandler+0x360>
E:/Project/PlumBL/CherryUSB/port/ch32/usb_ch58x_dc_usbfs.c:563
                                    EPn_SET_RX_VALID(epid);
20000644:	0004c783          	lbu	a5,0(s1)
20000648:	0f37f793          	andi	a5,a5,243
E:/Project/PlumBL/CherryUSB/port/ch32/usb_ch58x_dc_usbfs.c:565 (discriminator 1)
                                    EPn_SET_RX_ISO_VALID(epid);
2000064c:	00f48023          	sb	a5,0(s1)
20000650:	bbb1                	j	200003ac <USB_IRQHandler+0xba>
20000652:	0004c783          	lbu	a5,0(s1)
20000656:	0f37f793          	andi	a5,a5,243
2000065a:	0047e793          	ori	a5,a5,4
2000065e:	b7fd                	j	2000064c <USB_IRQHandler+0x35a>
E:/Project/PlumBL/CherryUSB/port/ch32/usb_ch58x_dc_usbfs.c:603
    } else if (intflag & RB_UIF_BUS_RST) {
20000660:	00f14783          	lbu	a5,15(sp)
20000664:	8b85                	andi	a5,a5,1
20000666:	cf99                	beqz	a5,20000684 <USB_IRQHandler+0x392>
E:/Project/PlumBL/CherryUSB/port/ch32/usb_ch58x_dc_usbfs.c:605
        CH58x_USBFS_DEV->USB_DEV_AD = 0;
20000668:	000401a3          	sb	zero,3(s0)
E:/Project/PlumBL/CherryUSB/port/ch32/usb_ch58x_dc_usbfs.c:606
        usbd_event_reset_handler();
2000066c:	e0001097          	auipc	ra,0xe0001
20000670:	6ac080e7          	jalr	1708(ra) # 1d18 <usbd_event_reset_handler>
E:/Project/PlumBL/CherryUSB/port/ch32/usb_ch58x_dc_usbfs.c:608
        EPn_SET_RX_VALID(0);
20000674:	02244783          	lbu	a5,34(s0)
20000678:	0f37f793          	andi	a5,a5,243
2000067c:	02f40123          	sb	a5,34(s0)
E:/Project/PlumBL/CherryUSB/port/ch32/usb_ch58x_dc_usbfs.c:609
        CH58x_USBFS_DEV->USB_INT_FG = RB_UIF_BUS_RST;
20000680:	4785                	li	a5,1
20000682:	b365                	j	2000042a <USB_IRQHandler+0x138>
E:/Project/PlumBL/CherryUSB/port/ch32/usb_ch58x_dc_usbfs.c:610
    } else if (intflag & RB_UIF_SUSPEND) {
20000684:	00f14783          	lbu	a5,15(sp)
20000688:	8b91                	andi	a5,a5,4
2000068a:	c789                	beqz	a5,20000694 <USB_IRQHandler+0x3a2>
E:/Project/PlumBL/CherryUSB/port/ch32/usb_ch58x_dc_usbfs.c:611
        if (CH58x_USBFS_DEV->USB_MIS_ST & RB_UMS_SUSPEND) {
2000068c:	00544783          	lbu	a5,5(s0)
E:/Project/PlumBL/CherryUSB/port/ch32/usb_ch58x_dc_usbfs.c:616
        CH58x_USBFS_DEV->USB_INT_FG = RB_UIF_SUSPEND;
20000690:	4791                	li	a5,4
20000692:	bb61                	j	2000042a <USB_IRQHandler+0x138>
E:/Project/PlumBL/CherryUSB/port/ch32/usb_ch58x_dc_usbfs.c:618
        CH58x_USBFS_DEV->USB_INT_FG = intflag;
20000694:	00f14783          	lbu	a5,15(sp)
20000698:	0ff7f793          	andi	a5,a5,255
2000069c:	b379                	j	2000042a <USB_IRQHandler+0x138>

2000069e <FLASH_ROM_BEG>:
FLASH_ROM_BEG():
2000069e:	80040323          	sb	zero,-2042(s0)
200006a2:	4715                	li	a4,5
200006a4:	80e40323          	sb	a4,-2042(s0)
200006a8:	0001                	nop
200006aa:	80a40223          	sb	a0,-2044(s0)
200006ae:	8082                	ret

200006b0 <FLASH_ROM_END>:
FLASH_ROM_END():
200006b0:	80640783          	lb	a5,-2042(s0)
200006b4:	fe07cee3          	bltz	a5,200006b0 <FLASH_ROM_END>
200006b8:	80040323          	sb	zero,-2042(s0)
200006bc:	8082                	ret

200006be <FLASH_ROM_IN>:
FLASH_ROM_IN():
200006be:	80640783          	lb	a5,-2042(s0)
200006c2:	fe07cee3          	bltz	a5,200006be <FLASH_ROM_IN>
200006c6:	80444503          	lbu	a0,-2044(s0)
200006ca:	8082                	ret

200006cc <FLASH_ROM_OUT>:
FLASH_ROM_OUT():
200006cc:	80640783          	lb	a5,-2042(s0)
200006d0:	fe07cee3          	bltz	a5,200006cc <FLASH_ROM_OUT>
200006d4:	80a40223          	sb	a0,-2044(s0)
200006d8:	8082                	ret

200006da <FLASH_ROM_ADDR>:
FLASH_ROM_ADDR():
200006da:	1141                	addi	sp,sp,-16
200006dc:	c426                	sw	s1,8(sp)
200006de:	c24a                	sw	s2,4(sp)
200006e0:	c04e                	sw	s3,0(sp)
200006e2:	c606                	sw	ra,12(sp)
200006e4:	0bf57713          	andi	a4,a0,191
200006e8:	47ad                	li	a5,11
200006ea:	89aa                	mv	s3,a0
200006ec:	892e                	mv	s2,a1
200006ee:	4495                	li	s1,5
200006f0:	00f70663          	beq	a4,a5,200006fc <FLASH_ROM_ADDR+0x22>
200006f4:	4519                	li	a0,6
200006f6:	3765                	jal	2000069e <FLASH_ROM_BEG>
200006f8:	3f65                	jal	200006b0 <FLASH_ROM_END>
200006fa:	448d                	li	s1,3
200006fc:	854e                	mv	a0,s3
200006fe:	3745                	jal	2000069e <FLASH_ROM_BEG>
20000700:	59fd                	li	s3,-1
20000702:	14fd                	addi	s1,s1,-1
20000704:	01349863          	bne	s1,s3,20000714 <FLASH_ROM_ADDR+0x3a>
20000708:	40b2                	lw	ra,12(sp)
2000070a:	44a2                	lw	s1,8(sp)
2000070c:	4912                	lw	s2,4(sp)
2000070e:	4982                	lw	s3,0(sp)
20000710:	0141                	addi	sp,sp,16
20000712:	8082                	ret
20000714:	01095513          	srli	a0,s2,0x10
20000718:	0ff57513          	andi	a0,a0,255
2000071c:	3f45                	jal	200006cc <FLASH_ROM_OUT>
2000071e:	0922                	slli	s2,s2,0x8
20000720:	b7cd                	j	20000702 <FLASH_ROM_ADDR+0x28>

20000722 <FLASH_ROM_WAIT>:
FLASH_ROM_WAIT():
20000722:	1101                	addi	sp,sp,-32
20000724:	cc26                	sw	s1,24(sp)
20000726:	ce06                	sw	ra,28(sp)
20000728:	000804b7          	lui	s1,0x80
2000072c:	3751                	jal	200006b0 <FLASH_ROM_END>
2000072e:	4515                	li	a0,5
20000730:	37bd                	jal	2000069e <FLASH_ROM_BEG>
20000732:	3771                	jal	200006be <FLASH_ROM_IN>
20000734:	3769                	jal	200006be <FLASH_ROM_IN>
20000736:	c62a                	sw	a0,12(sp)
20000738:	3fa5                	jal	200006b0 <FLASH_ROM_END>
2000073a:	4532                	lw	a0,12(sp)
2000073c:	00157793          	andi	a5,a0,1
20000740:	eb89                	bnez	a5,20000752 <FLASH_ROM_WAIT+0x30>
20000742:	00156513          	ori	a0,a0,1
20000746:	0ff57513          	andi	a0,a0,255
2000074a:	40f2                	lw	ra,28(sp)
2000074c:	44e2                	lw	s1,24(sp)
2000074e:	6105                	addi	sp,sp,32
20000750:	8082                	ret
20000752:	14fd                	addi	s1,s1,-1
20000754:	fce9                	bnez	s1,2000072e <FLASH_ROM_WAIT+0xc>
20000756:	4501                	li	a0,0
20000758:	bfcd                	j	2000074a <FLASH_ROM_WAIT+0x28>

2000075a <FLASH_EEPROM_CMD>:
FLASH_EEPROM_CMD():
2000075a:	7139                	addi	sp,sp,-64
2000075c:	dc26                	sw	s1,56(sp)
2000075e:	da4a                	sw	s2,52(sp)
20000760:	d84e                	sw	s3,48(sp)
20000762:	d652                	sw	s4,44(sp)
20000764:	d456                	sw	s5,40(sp)
20000766:	d25a                	sw	s6,36(sp)
20000768:	d05e                	sw	s7,32(sp)
2000076a:	de06                	sw	ra,60(sp)
2000076c:	ce62                	sw	s8,28(sp)
2000076e:	cc66                	sw	s9,24(sp)
20000770:	e000e7b7          	lui	a5,0xe000e
20000774:	577d                	li	a4,-1
20000776:	0007aa83          	lw	s5,0(a5) # e000e000 <_eusrstack+0xc0006004>
2000077a:	c622                	sw	s0,12(sp)
2000077c:	0047aa03          	lw	s4,4(a5)
20000780:	18e7a023          	sw	a4,384(a5)
20000784:	18e7a223          	sw	a4,388(a5)
20000788:	400017b7          	lui	a5,0x40001
2000078c:	05700713          	li	a4,87
20000790:	04e78023          	sb	a4,64(a5) # 40001040 <_eusrstack+0x1fff9044>
20000794:	fa800713          	li	a4,-88
20000798:	04e78023          	sb	a4,64(a5)
2000079c:	0447c783          	lbu	a5,68(a5)
200007a0:	ff750b93          	addi	s7,a0,-9
200007a4:	84b6                	mv	s1,a3
200007a6:	07e2                	slli	a5,a5,0x18
200007a8:	0ffbfb93          	andi	s7,s7,255
200007ac:	4685                	li	a3,1
200007ae:	89aa                	mv	s3,a0
200007b0:	8b2e                	mv	s6,a1
200007b2:	8932                	mv	s2,a2
200007b4:	40002437          	lui	s0,0x40002
200007b8:	87e1                	srai	a5,a5,0x18
200007ba:	5701                	li	a4,-32
200007bc:	0176fa63          	bgeu	a3,s7,200007d0 <FLASH_EEPROM_CMD+0x76>
200007c0:	00d50863          	beq	a0,a3,200007d0 <FLASH_EEPROM_CMD+0x76>
200007c4:	4689                	li	a3,2
200007c6:	02000713          	li	a4,32
200007ca:	00d51363          	bne	a0,a3,200007d0 <FLASH_EEPROM_CMD+0x76>
200007ce:	5701                	li	a4,-32
200007d0:	8fd9                	or	a5,a5,a4
200007d2:	0ff7f793          	andi	a5,a5,255
200007d6:	40001cb7          	lui	s9,0x40001
200007da:	04fc8223          	sb	a5,68(s9) # 40001044 <_eusrstack+0x1fff9048>
200007de:	4711                	li	a4,4
200007e0:	80e40323          	sb	a4,-2042(s0) # 40001806 <_eusrstack+0x1fff980a>
200007e4:	0ff00513          	li	a0,255
200007e8:	3d5d                	jal	2000069e <FLASH_ROM_BEG>
200007ea:	4c09                	li	s8,2
200007ec:	35d1                	jal	200006b0 <FLASH_ROM_END>
200007ee:	117c6d63          	bltu	s8,s7,20000908 <FLASH_EEPROM_CMD+0x1ae>
200007f2:	000705b7          	lui	a1,0x70
200007f6:	95da                	add	a1,a1,s6
200007f8:	00078737          	lui	a4,0x78
200007fc:	5579                	li	a0,-2
200007fe:	04e5f263          	bgeu	a1,a4,20000842 <FLASH_EEPROM_CMD+0xe8>
20000802:	009587b3          	add	a5,a1,s1
20000806:	02f76e63          	bltu	a4,a5,20000842 <FLASH_EEPROM_CMD+0xe8>
2000080a:	00080b37          	lui	s6,0x80
2000080e:	47a9                	li	a5,10
20000810:	0165eb33          	or	s6,a1,s6
20000814:	06f99963          	bne	s3,a5,20000886 <FLASH_EEPROM_CMD+0x12c>
20000818:	e489                	bnez	s1,20000822 <FLASH_EEPROM_CMD+0xc8>
2000081a:	4481                	li	s1,0
2000081c:	3d51                	jal	200006b0 <FLASH_ROM_END>
2000081e:	8526                	mv	a0,s1
20000820:	a00d                	j	20000842 <FLASH_EEPROM_CMD+0xe8>
20000822:	85da                	mv	a1,s6
20000824:	4509                	li	a0,2
20000826:	3d55                	jal	200006da <FLASH_ROM_ADDR>
20000828:	0905                	addi	s2,s2,1
2000082a:	fff94503          	lbu	a0,-1(s2)
2000082e:	14fd                	addi	s1,s1,-1
20000830:	0b05                	addi	s6,s6,1
20000832:	3d69                	jal	200006cc <FLASH_ROM_OUT>
20000834:	c481                	beqz	s1,2000083c <FLASH_EEPROM_CMD+0xe2>
20000836:	0ffb7793          	andi	a5,s6,255
2000083a:	f7fd                	bnez	a5,20000828 <FLASH_EEPROM_CMD+0xce>
2000083c:	35dd                	jal	20000722 <FLASH_ROM_WAIT>
2000083e:	fd69                	bnez	a0,20000818 <FLASH_EEPROM_CMD+0xbe>
20000840:	557d                	li	a0,-1
20000842:	400017b7          	lui	a5,0x40001
20000846:	05700713          	li	a4,87
2000084a:	04e78023          	sb	a4,64(a5) # 40001040 <_eusrstack+0x1fff9044>
2000084e:	fa800713          	li	a4,-88
20000852:	04e78023          	sb	a4,64(a5)
20000856:	0447c703          	lbu	a4,68(a5)
2000085a:	8b41                	andi	a4,a4,16
2000085c:	04e78223          	sb	a4,68(a5)
20000860:	50f2                	lw	ra,60(sp)
20000862:	e000e7b7          	lui	a5,0xe000e
20000866:	1157a023          	sw	s5,256(a5) # e000e100 <_eusrstack+0xc0006104>
2000086a:	1147a223          	sw	s4,260(a5)
2000086e:	54e2                	lw	s1,56(sp)
20000870:	4432                	lw	s0,12(sp)
20000872:	5952                	lw	s2,52(sp)
20000874:	59c2                	lw	s3,48(sp)
20000876:	5a32                	lw	s4,44(sp)
20000878:	5aa2                	lw	s5,40(sp)
2000087a:	5b12                	lw	s6,36(sp)
2000087c:	5b82                	lw	s7,32(sp)
2000087e:	4c72                	lw	s8,28(sp)
20000880:	4ce2                	lw	s9,24(sp)
20000882:	6121                	addi	sp,sp,64
20000884:	8082                	ret
20000886:	47a5                	li	a5,9
20000888:	06f99563          	bne	s3,a5,200008f2 <FLASH_EEPROM_CMD+0x198>
2000088c:	6985                	lui	s3,0x1
2000088e:	0ff00913          	li	s2,255
20000892:	009906b3          	add	a3,s2,s1
20000896:	012b74b3          	and	s1,s6,s2
2000089a:	94b6                	add	s1,s1,a3
2000089c:	fff94913          	not	s2,s2
200008a0:	009974b3          	and	s1,s2,s1
200008a4:	6b85                	lui	s7,0x1
200008a6:	01697933          	and	s2,s2,s6
200008aa:	6b41                	lui	s6,0x10
200008ac:	fff98793          	addi	a5,s3,-1 # fff <uf2_write_block+0xa3>
200008b0:	0127f7b3          	and	a5,a5,s2
200008b4:	e399                	bnez	a5,200008ba <FLASH_EEPROM_CMD+0x160>
200008b6:	0134fc63          	bgeu	s1,s3,200008ce <FLASH_EEPROM_CMD+0x174>
200008ba:	0049d993          	srli	s3,s3,0x4
200008be:	47c1                	li	a5,16
200008c0:	ff37e6e3          	bltu	a5,s3,200008ac <FLASH_EEPROM_CMD+0x152>
200008c4:	bf99                	j	2000081a <FLASH_EEPROM_CMD+0xc0>
200008c6:	6905                	lui	s2,0x1
200008c8:	69c1                	lui	s3,0x10
200008ca:	197d                	addi	s2,s2,-1
200008cc:	b7d9                	j	20000892 <FLASH_EEPROM_CMD+0x138>
200008ce:	0d800513          	li	a0,216
200008d2:	01698863          	beq	s3,s6,200008e2 <FLASH_EEPROM_CMD+0x188>
200008d6:	02000513          	li	a0,32
200008da:	01798463          	beq	s3,s7,200008e2 <FLASH_EEPROM_CMD+0x188>
200008de:	08100513          	li	a0,129
200008e2:	85ca                	mv	a1,s2
200008e4:	3bdd                	jal	200006da <FLASH_ROM_ADDR>
200008e6:	3d35                	jal	20000722 <FLASH_ROM_WAIT>
200008e8:	dd21                	beqz	a0,20000840 <FLASH_EEPROM_CMD+0xe6>
200008ea:	994e                	add	s2,s2,s3
200008ec:	413484b3          	sub	s1,s1,s3
200008f0:	b7d9                	j	200008b6 <FLASH_EEPROM_CMD+0x15c>
200008f2:	85da                	mv	a1,s6
200008f4:	452d                	li	a0,11
200008f6:	33d5                	jal	200006da <FLASH_ROM_ADDR>
200008f8:	94ca                	add	s1,s1,s2
200008fa:	f29900e3          	beq	s2,s1,2000081a <FLASH_EEPROM_CMD+0xc0>
200008fe:	0905                	addi	s2,s2,1
20000900:	3b7d                	jal	200006be <FLASH_ROM_IN>
20000902:	fea90fa3          	sb	a0,-1(s2) # fff <uf2_write_block+0xa3>
20000906:	bfd5                	j	200008fa <FLASH_EEPROM_CMD+0x1a0>
20000908:	fff98793          	addi	a5,s3,-1 # ffff <_data_lma+0xbdbb>
2000090c:	0ff7f793          	andi	a5,a5,255
20000910:	0cfc6163          	bltu	s8,a5,200009d2 <.loop402+0x7a>
20000914:	041cc783          	lbu	a5,65(s9)
20000918:	08300713          	li	a4,131
2000091c:	04f71f63          	bne	a4,a5,2000097a <.loop402+0x22>
20000920:	00080737          	lui	a4,0x80
20000924:	04eb6b63          	bltu	s6,a4,2000097a <.loop402+0x22>
20000928:	009b07b3          	add	a5,s6,s1
2000092c:	001006b7          	lui	a3,0x100
20000930:	04d7f563          	bgeu	a5,a3,2000097a <.loop402+0x22>
20000934:	00eb4b33          	xor	s6,s6,a4
20000938:	4789                	li	a5,2
2000093a:	06f99363          	bne	s3,a5,200009a0 <.loop402+0x48>
2000093e:	8089                	srli	s1,s1,0x2
20000940:	49d5                	li	s3,21
20000942:	ec048ce3          	beqz	s1,2000081a <FLASH_EEPROM_CMD+0xc0>
20000946:	85da                	mv	a1,s6
20000948:	4509                	li	a0,2
2000094a:	3b41                	jal	200006da <FLASH_ROM_ADDR>
2000094c:	0911                	addi	s2,s2,4
2000094e:	ffc92703          	lw	a4,-4(s2)
20000952:	4791                	li	a5,4
20000954:	80e42023          	sw	a4,-2048(s0)

20000958 <.loop402>:
20000958:	80640703          	lb	a4,-2042(s0)
2000095c:	fe074ee3          	bltz	a4,20000958 <.loop402>
20000960:	81340323          	sb	s3,-2042(s0)
20000964:	17fd                	addi	a5,a5,-1
20000966:	fbed                	bnez	a5,20000958 <.loop402>
20000968:	14fd                	addi	s1,s1,-1
2000096a:	0b11                	addi	s6,s6,4
2000096c:	c481                	beqz	s1,20000974 <.loop402+0x1c>
2000096e:	0ffb7793          	andi	a5,s6,255
20000972:	ffe9                	bnez	a5,2000094c <FLASH_EEPROM_CMD+0x1f2>
20000974:	337d                	jal	20000722 <FLASH_ROM_WAIT>
20000976:	f571                	bnez	a0,20000942 <FLASH_EEPROM_CMD+0x1e8>
20000978:	b5e1                	j	20000840 <FLASH_EEPROM_CMD+0xe6>
2000097a:	400017b7          	lui	a5,0x40001
2000097e:	0457c703          	lbu	a4,69(a5) # 40001045 <_eusrstack+0x1fff9049>
20000982:	000807b7          	lui	a5,0x80
20000986:	02077713          	andi	a4,a4,32
2000098a:	e319                	bnez	a4,20000990 <.loop402+0x38>
2000098c:	000787b7          	lui	a5,0x78
20000990:	5579                	li	a0,-2
20000992:	eafb78e3          	bgeu	s6,a5,20000842 <FLASH_EEPROM_CMD+0xe8>
20000996:	009b0733          	add	a4,s6,s1
2000099a:	f8e7ffe3          	bgeu	a5,a4,20000938 <FLASH_EEPROM_CMD+0x1de>
2000099e:	b555                	j	20000842 <FLASH_EEPROM_CMD+0xe8>
200009a0:	4785                	li	a5,1
200009a2:	f2f982e3          	beq	s3,a5,200008c6 <FLASH_EEPROM_CMD+0x16c>
200009a6:	85da                	mv	a1,s6
200009a8:	452d                	li	a0,11
200009aa:	3b05                	jal	200006da <FLASH_ROM_ADDR>
200009ac:	fff48993          	addi	s3,s1,-1 # 7ffff <_data_lma+0x7bdbb>
200009b0:	e60485e3          	beqz	s1,2000081a <FLASH_EEPROM_CMD+0xc0>
200009b4:	3329                	jal	200006be <FLASH_ROM_IN>
200009b6:	0039f793          	andi	a5,s3,3
200009ba:	eb91                	bnez	a5,200009ce <.loop402+0x76>
200009bc:	80042683          	lw	a3,-2048(s0)
200009c0:	00092703          	lw	a4,0(s2)
200009c4:	00490793          	addi	a5,s2,4
200009c8:	e4e69ae3          	bne	a3,a4,2000081c <FLASH_EEPROM_CMD+0xc2>
200009cc:	893e                	mv	s2,a5
200009ce:	84ce                	mv	s1,s3
200009d0:	bff1                	j	200009ac <.loop402+0x54>
200009d2:	47b5                	li	a5,13
200009d4:	00f99663          	bne	s3,a5,200009e0 <.loop402+0x88>
200009d8:	0b900513          	li	a0,185
200009dc:	31c9                	jal	2000069e <FLASH_ROM_BEG>
200009de:	bd35                	j	2000081a <FLASH_EEPROM_CMD+0xc0>
200009e0:	47b1                	li	a5,12
200009e2:	0ab00513          	li	a0,171
200009e6:	fef98be3          	beq	s3,a5,200009dc <.loop402+0x84>
200009ea:	4799                	li	a5,6
200009ec:	04f99163          	bne	s3,a5,20000a2e <.loop402+0xd6>
200009f0:	000805b7          	lui	a1,0x80
200009f4:	00bb65b3          	or	a1,s6,a1
200009f8:	452d                	li	a0,11
200009fa:	31c5                	jal	200006da <FLASH_ROM_ADDR>
200009fc:	4481                	li	s1,0
200009fe:	4b8d                	li	s7,3
20000a00:	49a1                	li	s3,8
20000a02:	3975                	jal	200006be <FLASH_ROM_IN>
20000a04:	01749663          	bne	s1,s7,20000a10 <.loop402+0xb8>
20000a08:	80042783          	lw	a5,-2048(s0)
20000a0c:	00f92023          	sw	a5,0(s2)
20000a10:	0485                	addi	s1,s1,1
20000a12:	ff3498e3          	bne	s1,s3,20000a02 <.loop402+0xaa>
20000a16:	80042783          	lw	a5,-2048(s0)
20000a1a:	012b1713          	slli	a4,s6,0x12
20000a1e:	00075563          	bgez	a4,20000a28 <.loop402+0xd0>
20000a22:	00f91223          	sh	a5,4(s2)
20000a26:	bbd5                	j	2000081a <FLASH_EEPROM_CMD+0xc0>
20000a28:	00f92223          	sw	a5,4(s2)
20000a2c:	b3fd                	j	2000081a <FLASH_EEPROM_CMD+0xc0>
20000a2e:	479d                	li	a5,7
20000a30:	02f99963          	bne	s3,a5,20000a62 <.loop402+0x10a>
20000a34:	4581                	li	a1,0
20000a36:	04b00513          	li	a0,75
20000a3a:	3145                	jal	200006da <FLASH_ROM_ADDR>
20000a3c:	44bd                	li	s1,15
20000a3e:	00092023          	sw	zero,0(s2)
20000a42:	00092223          	sw	zero,4(s2)
20000a46:	59fd                	li	s3,-1
20000a48:	399d                	jal	200006be <FLASH_ROM_IN>
20000a4a:	0074f793          	andi	a5,s1,7
20000a4e:	97ca                	add	a5,a5,s2
20000a50:	0007c703          	lbu	a4,0(a5) # 78000 <_data_lma+0x73dbc>
20000a54:	14fd                	addi	s1,s1,-1
20000a56:	8d39                	xor	a0,a0,a4
20000a58:	00a78023          	sb	a0,0(a5)
20000a5c:	ff3496e3          	bne	s1,s3,20000a48 <.loop402+0xf0>
20000a60:	bb6d                	j	2000081a <FLASH_EEPROM_CMD+0xc0>
20000a62:	47a1                	li	a5,8
20000a64:	04f99263          	bne	s3,a5,20000aa8 <.loop402+0x150>
20000a68:	396d                	jal	20000722 <FLASH_ROM_WAIT>
20000a6a:	4481                	li	s1,0
20000a6c:	000b0d63          	beqz	s6,20000a86 <.loop402+0x12e>
20000a70:	478d                	li	a5,3
20000a72:	03c00493          	li	s1,60
20000a76:	00fb0863          	beq	s6,a5,20000a86 <.loop402+0x12e>
20000a7a:	05000493          	li	s1,80
20000a7e:	018b0463          	beq	s6,s8,20000a86 <.loop402+0x12e>
20000a82:	04400493          	li	s1,68
20000a86:	07c57513          	andi	a0,a0,124
20000a8a:	d89508e3          	beq	a0,s1,2000081a <FLASH_EEPROM_CMD+0xc0>
20000a8e:	4519                	li	a0,6
20000a90:	3139                	jal	2000069e <FLASH_ROM_BEG>
20000a92:	3939                	jal	200006b0 <FLASH_ROM_END>
20000a94:	4505                	li	a0,1
20000a96:	3121                	jal	2000069e <FLASH_ROM_BEG>
20000a98:	8526                	mv	a0,s1
20000a9a:	390d                	jal	200006cc <FLASH_ROM_OUT>
20000a9c:	4509                	li	a0,2
20000a9e:	313d                	jal	200006cc <FLASH_ROM_OUT>
20000aa0:	3149                	jal	20000722 <FLASH_ROM_WAIT>
20000aa2:	d6051ce3          	bnez	a0,2000081a <FLASH_EEPROM_CMD+0xc0>
20000aa6:	bb69                	j	20000840 <FLASH_EEPROM_CMD+0xe6>
20000aa8:	4791                	li	a5,4
20000aaa:	00f99963          	bne	s3,a5,20000abc <.loop402+0x164>
20000aae:	06600513          	li	a0,102
20000ab2:	36f5                	jal	2000069e <FLASH_ROM_BEG>
20000ab4:	3ef5                	jal	200006b0 <FLASH_ROM_END>
20000ab6:	09900513          	li	a0,153
20000aba:	b70d                	j	200009dc <.loop402+0x84>
20000abc:	d4098fe3          	beqz	s3,2000081a <FLASH_EEPROM_CMD+0xc0>
20000ac0:	54f1                	li	s1,-4
20000ac2:	bba9                	j	2000081c <FLASH_EEPROM_CMD+0xc2>

Disassembly of section .text:

00000ac8 <handle_reset>:
handle_reset():
E:/Project/PlumBL/drv/ch58x_drivers/Startup/startup_CH583.S:125
	.weak	handle_reset
	.align	1
handle_reset:
.option push 
.option	norelax 
	la gp, __global_pointer$
     ac8:	20001197          	auipc	gp,0x20001
     acc:	8a818193          	addi	gp,gp,-1880 # 20001370 <__global_pointer$>
E:/Project/PlumBL/drv/ch58x_drivers/Startup/startup_CH583.S:128
.option	pop 
1:
	la sp, _eusrstack 
     ad0:	20007117          	auipc	sp,0x20007
     ad4:	52c10113          	addi	sp,sp,1324 # 20007ffc <_eusrstack>
E:/Project/PlumBL/drv/ch58x_drivers/Startup/startup_CH583.S:132

/* Load highcode code  section from flash to RAM */
2:
    la a0, _highcode_lma
     ad8:	00400513          	li	a0,4
E:/Project/PlumBL/drv/ch58x_drivers/Startup/startup_CH583.S:133
    la a1, _highcode_vma_start
     adc:	1ffff597          	auipc	a1,0x1ffff
     ae0:	52458593          	addi	a1,a1,1316 # 20000000 <_highcode_vma_start>
E:/Project/PlumBL/drv/ch58x_drivers/Startup/startup_CH583.S:134
    la a2, _highcode_vma_end
     ae4:	20000617          	auipc	a2,0x20000
     ae8:	fe060613          	addi	a2,a2,-32 # 20000ac4 <_highcode_vma_end>
E:/Project/PlumBL/drv/ch58x_drivers/Startup/startup_CH583.S:135
    bgeu a1, a2, 2f
     aec:	00c5fa63          	bgeu	a1,a2,b00 <handle_reset+0x38>
E:/Project/PlumBL/drv/ch58x_drivers/Startup/startup_CH583.S:137
1:
    lw t0, (a0)
     af0:	00052283          	lw	t0,0(a0)
E:/Project/PlumBL/drv/ch58x_drivers/Startup/startup_CH583.S:138
    sw t0, (a1)
     af4:	0055a023          	sw	t0,0(a1)
E:/Project/PlumBL/drv/ch58x_drivers/Startup/startup_CH583.S:139
    addi a0, a0, 4
     af8:	0511                	addi	a0,a0,4
E:/Project/PlumBL/drv/ch58x_drivers/Startup/startup_CH583.S:140
    addi a1, a1, 4
     afa:	0591                	addi	a1,a1,4
E:/Project/PlumBL/drv/ch58x_drivers/Startup/startup_CH583.S:141
    bltu a1, a2, 1b
     afc:	fec5eae3          	bltu	a1,a2,af0 <handle_reset+0x28>
E:/Project/PlumBL/drv/ch58x_drivers/Startup/startup_CH583.S:145

/* Load data section from flash to RAM */
2:
	la a0, _data_lma
     b00:	00003517          	auipc	a0,0x3
     b04:	74450513          	addi	a0,a0,1860 # 4244 <_data_lma>
E:/Project/PlumBL/drv/ch58x_drivers/Startup/startup_CH583.S:146
	la a1, _data_vma
     b08:	20000597          	auipc	a1,0x20000
     b0c:	fbc58593          	addi	a1,a1,-68 # 20000ac4 <_highcode_vma_end>
E:/Project/PlumBL/drv/ch58x_drivers/Startup/startup_CH583.S:147
	la a2, _edata
     b10:	80818613          	addi	a2,gp,-2040 # 20000b78 <_edata>
E:/Project/PlumBL/drv/ch58x_drivers/Startup/startup_CH583.S:148
	bgeu a1, a2, 2f
     b14:	00c5fa63          	bgeu	a1,a2,b28 <handle_reset+0x60>
E:/Project/PlumBL/drv/ch58x_drivers/Startup/startup_CH583.S:150
1:
	lw t0, (a0)
     b18:	00052283          	lw	t0,0(a0)
E:/Project/PlumBL/drv/ch58x_drivers/Startup/startup_CH583.S:151
	sw t0, (a1)
     b1c:	0055a023          	sw	t0,0(a1)
E:/Project/PlumBL/drv/ch58x_drivers/Startup/startup_CH583.S:152
	addi a0, a0, 4
     b20:	0511                	addi	a0,a0,4
E:/Project/PlumBL/drv/ch58x_drivers/Startup/startup_CH583.S:153
	addi a1, a1, 4
     b22:	0591                	addi	a1,a1,4
E:/Project/PlumBL/drv/ch58x_drivers/Startup/startup_CH583.S:154
	bltu a1, a2, 1b
     b24:	fec5eae3          	bltu	a1,a2,b18 <handle_reset+0x50>
E:/Project/PlumBL/drv/ch58x_drivers/Startup/startup_CH583.S:157
2:
	/* clear bss section */
	la a0, _sbss
     b28:	20001517          	auipc	a0,0x20001
     b2c:	1b850513          	addi	a0,a0,440 # 20001ce0 <_sbss>
E:/Project/PlumBL/drv/ch58x_drivers/Startup/startup_CH583.S:158
	la a1, _ebss
     b30:	20002597          	auipc	a1,0x20002
     b34:	e1c58593          	addi	a1,a1,-484 # 2000294c <_ebss>
E:/Project/PlumBL/drv/ch58x_drivers/Startup/startup_CH583.S:159
	bgeu a0, a1, 2f
     b38:	00b57763          	bgeu	a0,a1,b46 <handle_reset+0x7e>
E:/Project/PlumBL/drv/ch58x_drivers/Startup/startup_CH583.S:161
1:
	sw zero, (a0)
     b3c:	00052023          	sw	zero,0(a0)
E:/Project/PlumBL/drv/ch58x_drivers/Startup/startup_CH583.S:162
	addi a0, a0, 4
     b40:	0511                	addi	a0,a0,4
E:/Project/PlumBL/drv/ch58x_drivers/Startup/startup_CH583.S:163
	bltu a0, a1, 1b
     b42:	feb56de3          	bltu	a0,a1,b3c <handle_reset+0x74>
E:/Project/PlumBL/drv/ch58x_drivers/Startup/startup_CH583.S:166
2:
	/* 娴姘寸嚎у朵 & ㄦ棰娴у朵 */
	li t0, 0x1f
     b46:	42fd                	li	t0,31
E:/Project/PlumBL/drv/ch58x_drivers/Startup/startup_CH583.S:167
	csrw 0xbc0, t0
     b48:	bc029073          	csrw	0xbc0,t0
E:/Project/PlumBL/drv/ch58x_drivers/Startup/startup_CH583.S:169
	/* 寮宓濂涓纭浠跺 */
	li t0, 0x3
     b4c:	428d                	li	t0,3
E:/Project/PlumBL/drv/ch58x_drivers/Startup/startup_CH583.S:170
	csrw 0x804, t0
     b4e:	80429073          	csrw	0x804,t0
E:/Project/PlumBL/drv/ch58x_drivers/Startup/startup_CH583.S:173
	
    /* li t0, 0x1888 MIE:1寮ㄥ涓 // MPIE:1 // MPP:11寮哄跺哄ㄦā寮 */
    li t0, 0x1888
     b52:	000022b7          	lui	t0,0x2
     b56:	88828293          	addi	t0,t0,-1912 # 1888 <usbd_setup_request_handler.constprop.3+0x1e6>
E:/Project/PlumBL/drv/ch58x_drivers/Startup/startup_CH583.S:174
    csrs mstatus, t0
     b5a:	3002a073          	csrs	mstatus,t0
E:/Project/PlumBL/drv/ch58x_drivers/Startup/startup_CH583.S:175
	la t0, _vector_base
     b5e:	1ffff297          	auipc	t0,0x1ffff
     b62:	4a228293          	addi	t0,t0,1186 # 20000000 <_highcode_vma_start>
E:/Project/PlumBL/drv/ch58x_drivers/Startup/startup_CH583.S:178

	/* 缃琛ㄦā寮涓虹瀵瑰板妯″ */
    ori t0, t0, 3
     b66:	0032e293          	ori	t0,t0,3
E:/Project/PlumBL/drv/ch58x_drivers/Startup/startup_CH583.S:179
	csrw mtvec, t0
     b6a:	30529073          	csrw	mtvec,t0
E:/Project/PlumBL/drv/ch58x_drivers/Startup/startup_CH583.S:181

	la t0, main
     b6e:	00000297          	auipc	t0,0x0
     b72:	66428293          	addi	t0,t0,1636 # 11d2 <main>
E:/Project/PlumBL/drv/ch58x_drivers/Startup/startup_CH583.S:182
	csrw mepc, t0
     b76:	34129073          	csrw	mepc,t0
E:/Project/PlumBL/drv/ch58x_drivers/Startup/startup_CH583.S:185
	
	
	mret
     b7a:	30200073          	mret

00000b7e <memset>:
memset():
     b7e:	433d                	li	t1,15
     b80:	872a                	mv	a4,a0
     b82:	02c37363          	bgeu	t1,a2,ba8 <memset+0x2a>
     b86:	00f77793          	andi	a5,a4,15
     b8a:	efbd                	bnez	a5,c08 <memset+0x8a>
     b8c:	e5ad                	bnez	a1,bf6 <memset+0x78>
     b8e:	ff067693          	andi	a3,a2,-16
     b92:	8a3d                	andi	a2,a2,15
     b94:	96ba                	add	a3,a3,a4
     b96:	c30c                	sw	a1,0(a4)
     b98:	c34c                	sw	a1,4(a4)
     b9a:	c70c                	sw	a1,8(a4)
     b9c:	c74c                	sw	a1,12(a4)
     b9e:	0741                	addi	a4,a4,16
     ba0:	fed76be3          	bltu	a4,a3,b96 <memset+0x18>
     ba4:	e211                	bnez	a2,ba8 <memset+0x2a>
     ba6:	8082                	ret
     ba8:	40c306b3          	sub	a3,t1,a2
     bac:	068a                	slli	a3,a3,0x2
     bae:	00000297          	auipc	t0,0x0
     bb2:	9696                	add	a3,a3,t0
     bb4:	00a68067          	jr	10(a3) # 10000a <_data_lma+0xfbdc6>
     bb8:	00b70723          	sb	a1,14(a4) # 8000e <_data_lma+0x7bdca>
     bbc:	00b706a3          	sb	a1,13(a4)
     bc0:	00b70623          	sb	a1,12(a4)
     bc4:	00b705a3          	sb	a1,11(a4)
     bc8:	00b70523          	sb	a1,10(a4)
     bcc:	00b704a3          	sb	a1,9(a4)
     bd0:	00b70423          	sb	a1,8(a4)
     bd4:	00b703a3          	sb	a1,7(a4)
     bd8:	00b70323          	sb	a1,6(a4)
     bdc:	00b702a3          	sb	a1,5(a4)
     be0:	00b70223          	sb	a1,4(a4)
     be4:	00b701a3          	sb	a1,3(a4)
     be8:	00b70123          	sb	a1,2(a4)
     bec:	00b700a3          	sb	a1,1(a4)
     bf0:	00b70023          	sb	a1,0(a4)
     bf4:	8082                	ret
     bf6:	0ff5f593          	andi	a1,a1,255
     bfa:	00859693          	slli	a3,a1,0x8
     bfe:	8dd5                	or	a1,a1,a3
     c00:	01059693          	slli	a3,a1,0x10
     c04:	8dd5                	or	a1,a1,a3
     c06:	b761                	j	b8e <memset+0x10>
     c08:	00279693          	slli	a3,a5,0x2
     c0c:	00000297          	auipc	t0,0x0
     c10:	9696                	add	a3,a3,t0
     c12:	8286                	mv	t0,ra
     c14:	fa8680e7          	jalr	-88(a3)
     c18:	8096                	mv	ra,t0
     c1a:	17c1                	addi	a5,a5,-16
     c1c:	8f1d                	sub	a4,a4,a5
     c1e:	963e                	add	a2,a2,a5
     c20:	f8c374e3          	bgeu	t1,a2,ba8 <memset+0x2a>
     c24:	b7a5                	j	b8c <memset+0xe>

00000c26 <uf2_init>:
uf2_init():
E:/Project/PlumBL/src/port/common/uf2/ghostfat.c:277

  return FID_UF2;
}

void uf2_init(void)
{
     c26:	1141                	addi	sp,sp,-16
     c28:	c606                	sw	ra,12(sp)
E:/Project/PlumBL/src/port/common/uf2/ghostfat.c:279
  // TODO maybe limit to application size only if possible board_flash_app_size()
  _flash_size = board_flash_size();
     c2a:	29e1                	jal	1102 <board_flash_size>
     c2c:	20001797          	auipc	a5,0x20001
     c30:	0aa7aa23          	sw	a0,180(a5) # 20001ce0 <_sbss>
E:/Project/PlumBL/src/port/common/uf2/ghostfat.c:282

  // update CURRENT.UF2 file size
  info[FID_UF2].size = UF2_BYTE_COUNT;
     c34:	8121                	srli	a0,a0,0x8
     c36:	0526                	slli	a0,a0,0x9
     c38:	20000797          	auipc	a5,0x20000
     c3c:	eca7a623          	sw	a0,-308(a5) # 20000b04 <_highcode_vma_end+0x40>
init_starting_clusters():
E:/Project/PlumBL/src/port/common/uf2/ghostfat.c:242
  for (uint16_t i = 0; i < NUM_FILES; i++)
     c40:	20000797          	auipc	a5,0x20000
     c44:	e8478793          	addi	a5,a5,-380 # 20000ac4 <_highcode_vma_end>
     c48:	20000597          	auipc	a1,0x20000
     c4c:	ec458593          	addi	a1,a1,-316 # 20000b0c <impure_data>
E:/Project/PlumBL/src/port/common/uf2/ghostfat.c:240
  uint16_t start_cluster = 2;
     c50:	4709                	li	a4,2
E:/Project/PlumBL/src/port/common/uf2/ghostfat.c:245
    info[i].cluster_end = start_cluster + UF2_DIV_CEIL(info[i].size, BPB_SECTOR_SIZE*BPB_SECTORS_PER_CLUSTER) - 1;
     c52:	4b90                	lw	a2,16(a5)
E:/Project/PlumBL/src/port/common/uf2/ghostfat.c:244
    info[i].cluster_start = start_cluster;
     c54:	00e79a23          	sh	a4,20(a5)
E:/Project/PlumBL/src/port/common/uf2/ghostfat.c:245
    info[i].cluster_end = start_cluster + UF2_DIV_CEIL(info[i].size, BPB_SECTOR_SIZE*BPB_SECTORS_PER_CLUSTER) - 1;
     c58:	07e1                	addi	a5,a5,24
     c5a:	1ff67693          	andi	a3,a2,511
     c5e:	00d036b3          	snez	a3,a3
     c62:	8225                	srli	a2,a2,0x9
     c64:	96b2                	add	a3,a3,a2
     c66:	9736                	add	a4,a4,a3
     c68:	0742                	slli	a4,a4,0x10
     c6a:	8341                	srli	a4,a4,0x10
     c6c:	fff70693          	addi	a3,a4,-1
     c70:	fed79f23          	sh	a3,-2(a5)
E:/Project/PlumBL/src/port/common/uf2/ghostfat.c:242
  for (uint16_t i = 0; i < NUM_FILES; i++)
     c74:	fcb79fe3          	bne	a5,a1,c52 <uf2_init+0x2c>
uf2_init():
E:/Project/PlumBL/src/port/common/uf2/ghostfat.c:285

  init_starting_clusters();
}
     c78:	40b2                	lw	ra,12(sp)
     c7a:	0141                	addi	sp,sp,16
     c7c:	8082                	ret

00000c7e <padded_memcpy>:
padded_memcpy():
E:/Project/PlumBL/src/port/common/uf2/ghostfat.c:292
/*------------------------------------------------------------------*/
/* Read CURRENT.UF2
 *------------------------------------------------------------------*/
void padded_memcpy (char *dst, char const *src, int len)
{
  for ( int i = 0; i < len; ++i )
     c7e:	4781                	li	a5,0
E:/Project/PlumBL/src/port/common/uf2/ghostfat.c:292 (discriminator 1)
     c80:	00c7c363          	blt	a5,a2,c86 <padded_memcpy+0x8>
E:/Project/PlumBL/src/port/common/uf2/ghostfat.c:301
    } else {
      *dst = ' ';
    }
    dst++;
  }
}
     c84:	8082                	ret
E:/Project/PlumBL/src/port/common/uf2/ghostfat.c:294
    if ( *src ) {
     c86:	00058703          	lb	a4,0(a1)
     c8a:	cb01                	beqz	a4,c9a <padded_memcpy+0x1c>
E:/Project/PlumBL/src/port/common/uf2/ghostfat.c:295
      *dst = *src++;
     c8c:	0585                	addi	a1,a1,1
     c8e:	00f506b3          	add	a3,a0,a5
     c92:	00e68023          	sb	a4,0(a3)
E:/Project/PlumBL/src/port/common/uf2/ghostfat.c:292 (discriminator 2)
  for ( int i = 0; i < len; ++i )
     c96:	0785                	addi	a5,a5,1
     c98:	b7e5                	j	c80 <padded_memcpy+0x2>
E:/Project/PlumBL/src/port/common/uf2/ghostfat.c:297
      *dst = ' ';
     c9a:	02000713          	li	a4,32
     c9e:	bfc5                	j	c8e <padded_memcpy+0x10>

00000ca0 <uf2_read_block>:
uf2_read_block():
E:/Project/PlumBL/src/port/common/uf2/ghostfat.c:304

void uf2_read_block (uint32_t block_no, uint8_t *data)
{
     ca0:	7179                	addi	sp,sp,-48
     ca2:	d422                	sw	s0,40(sp)
     ca4:	842e                	mv	s0,a1
     ca6:	d226                	sw	s1,36(sp)
E:/Project/PlumBL/src/port/common/uf2/ghostfat.c:305
  memset(data, 0, BPB_SECTOR_SIZE);
     ca8:	20000613          	li	a2,512
E:/Project/PlumBL/src/port/common/uf2/ghostfat.c:304
{
     cac:	84aa                	mv	s1,a0
E:/Project/PlumBL/src/port/common/uf2/ghostfat.c:305
  memset(data, 0, BPB_SECTOR_SIZE);
     cae:	4581                	li	a1,0
     cb0:	8522                	mv	a0,s0
E:/Project/PlumBL/src/port/common/uf2/ghostfat.c:304
{
     cb2:	d606                	sw	ra,44(sp)
     cb4:	d04a                	sw	s2,32(sp)
     cb6:	ce4e                	sw	s3,28(sp)
     cb8:	cc52                	sw	s4,24(sp)
     cba:	ca56                	sw	s5,20(sp)
     cbc:	c85a                	sw	s6,16(sp)
     cbe:	c65e                	sw	s7,12(sp)
     cc0:	c462                	sw	s8,8(sp)
     cc2:	c266                	sw	s9,4(sp)
E:/Project/PlumBL/src/port/common/uf2/ghostfat.c:305
  memset(data, 0, BPB_SECTOR_SIZE);
     cc4:	3d6d                	jal	b7e <memset>
E:/Project/PlumBL/src/port/common/uf2/ghostfat.c:308
  uint32_t sectionRelativeSector = block_no;

  if ( block_no == 0 )
     cc6:	ec9d                	bnez	s1,d04 <uf2_read_block+0x64>
E:/Project/PlumBL/src/port/common/uf2/ghostfat.c:311
  {
    // Request was for the Boot block
    memcpy(data, &BootBlock, sizeof(BootBlock));
     cc8:	03e00613          	li	a2,62
     ccc:	00003597          	auipc	a1,0x3
     cd0:	fac58593          	addi	a1,a1,-84 # 3c78 <BootBlock>
     cd4:	8522                	mv	a0,s0
     cd6:	3ff010ef          	jal	ra,28d4 <memcpy>
E:/Project/PlumBL/src/port/common/uf2/ghostfat.c:312
    data[510] = 0x55;    // Always at offsets 510/511, even when BPB_SECTOR_SIZE is larger
     cda:	05500793          	li	a5,85
     cde:	1ef40f23          	sb	a5,510(s0)
E:/Project/PlumBL/src/port/common/uf2/ghostfat.c:313
    data[511] = 0xaa;    // Always at offsets 510/511, even when BPB_SECTOR_SIZE is larger
     ce2:	faa00793          	li	a5,-86
     ce6:	1ef40fa3          	sb	a5,511(s0)
E:/Project/PlumBL/src/port/common/uf2/ghostfat.c:475

        board_flash_read(addr, bl->data, bl->payloadSize);
      }
    }
  }
}
     cea:	50b2                	lw	ra,44(sp)
     cec:	5422                	lw	s0,40(sp)
     cee:	5492                	lw	s1,36(sp)
     cf0:	5902                	lw	s2,32(sp)
     cf2:	49f2                	lw	s3,28(sp)
     cf4:	4a62                	lw	s4,24(sp)
     cf6:	4ad2                	lw	s5,20(sp)
     cf8:	4b42                	lw	s6,16(sp)
     cfa:	4bb2                	lw	s7,12(sp)
     cfc:	4c22                	lw	s8,8(sp)
     cfe:	4c92                	lw	s9,4(sp)
     d00:	6145                	addi	sp,sp,48
     d02:	8082                	ret
E:/Project/PlumBL/src/port/common/uf2/ghostfat.c:315
  else if ( block_no < FS_START_ROOTDIR_SECTOR )
     d04:	20400793          	li	a5,516
     d08:	0897e363          	bltu	a5,s1,d8e <uf2_read_block+0xee>
E:/Project/PlumBL/src/port/common/uf2/ghostfat.c:318
    sectionRelativeSector -= FS_START_FAT0_SECTOR;
     d0c:	fff48793          	addi	a5,s1,-1
E:/Project/PlumBL/src/port/common/uf2/ghostfat.c:321
    if ( sectionRelativeSector >= BPB_SECTORS_PER_FAT )
     d10:	10100713          	li	a4,257
     d14:	00f77463          	bgeu	a4,a5,d1c <uf2_read_block+0x7c>
E:/Project/PlumBL/src/port/common/uf2/ghostfat.c:323
      sectionRelativeSector -= BPB_SECTORS_PER_FAT;
     d18:	efd48793          	addi	a5,s1,-259
E:/Project/PlumBL/src/port/common/uf2/ghostfat.c:328
    uint32_t sectorFirstCluster = sectionRelativeSector * FAT_ENTRIES_PER_SECTOR;
     d1c:	00879693          	slli	a3,a5,0x8
E:/Project/PlumBL/src/port/common/uf2/ghostfat.c:329
    uint32_t firstUnusedCluster = info[FID_UF2].cluster_end + 1;
     d20:	20000597          	auipc	a1,0x20000
     d24:	dea5d583          	lhu	a1,-534(a1) # 20000b0a <_highcode_vma_end+0x46>
     d28:	0585                	addi	a1,a1,1
E:/Project/PlumBL/src/port/common/uf2/ghostfat.c:343
    for (uint16_t i = 0; i < FAT_ENTRIES_PER_SECTOR; i++)
     d2a:	8622                	mv	a2,s0
     d2c:	10068813          	addi	a6,a3,256
E:/Project/PlumBL/src/port/common/uf2/ghostfat.c:328
    uint32_t sectorFirstCluster = sectionRelativeSector * FAT_ENTRIES_PER_SECTOR;
     d30:	8736                	mv	a4,a3
E:/Project/PlumBL/src/port/common/uf2/ghostfat.c:346
      if (cluster >= firstUnusedCluster)
     d32:	00170513          	addi	a0,a4,1
     d36:	04b76963          	bltu	a4,a1,d88 <uf2_read_block+0xe8>
E:/Project/PlumBL/src/port/common/uf2/ghostfat.c:348
        data16[i] = 0;
     d3a:	00061023          	sh	zero,0(a2)
     d3e:	872a                	mv	a4,a0
     d40:	0609                	addi	a2,a2,2
E:/Project/PlumBL/src/port/common/uf2/ghostfat.c:343 (discriminator 2)
    for (uint16_t i = 0; i < FAT_ENTRIES_PER_SECTOR; i++)
     d42:	fea818e3          	bne	a6,a0,d32 <uf2_read_block+0x92>
E:/Project/PlumBL/src/port/common/uf2/ghostfat.c:357
    if (sectionRelativeSector == 0)
     d46:	e799                	bnez	a5,d54 <uf2_read_block+0xb4>
E:/Project/PlumBL/src/port/common/uf2/ghostfat.c:359
      data[0] = BPB_MEDIA_DESCRIPTOR_BYTE;
     d48:	57e1                	li	a5,-8
     d4a:	00f41023          	sh	a5,0(s0)
E:/Project/PlumBL/src/port/common/uf2/ghostfat.c:361
      data16[1] = FAT_END_OF_CHAIN; // cluster 1 is reserved
     d4e:	57fd                	li	a5,-1
     d50:	00f41123          	sh	a5,2(s0)
     d54:	20000717          	auipc	a4,0x20000
     d58:	d7070713          	addi	a4,a4,-656 # 20000ac4 <_highcode_vma_end>
     d5c:	20000617          	auipc	a2,0x20000
     d60:	db060613          	addi	a2,a2,-592 # 20000b0c <impure_data>
E:/Project/PlumBL/src/port/common/uf2/ghostfat.c:371
        if (idx < FAT_ENTRIES_PER_SECTOR)
     d64:	0ff00593          	li	a1,255
E:/Project/PlumBL/src/port/common/uf2/ghostfat.c:374
          data16[idx] = FAT_END_OF_CHAIN;
     d68:	557d                	li	a0,-1
E:/Project/PlumBL/src/port/common/uf2/ghostfat.c:367
      uint32_t lastClusterOfFile = info[i].cluster_end;
     d6a:	01675783          	lhu	a5,22(a4)
E:/Project/PlumBL/src/port/common/uf2/ghostfat.c:368
      if (lastClusterOfFile >= sectorFirstCluster)
     d6e:	00d7e963          	bltu	a5,a3,d80 <uf2_read_block+0xe0>
E:/Project/PlumBL/src/port/common/uf2/ghostfat.c:370
        uint32_t idx = lastClusterOfFile - sectorFirstCluster;
     d72:	8f95                	sub	a5,a5,a3
E:/Project/PlumBL/src/port/common/uf2/ghostfat.c:371
        if (idx < FAT_ENTRIES_PER_SECTOR)
     d74:	00f5e663          	bltu	a1,a5,d80 <uf2_read_block+0xe0>
E:/Project/PlumBL/src/port/common/uf2/ghostfat.c:374
          data16[idx] = FAT_END_OF_CHAIN;
     d78:	0786                	slli	a5,a5,0x1
     d7a:	97a2                	add	a5,a5,s0
     d7c:	00a79023          	sh	a0,0(a5)
     d80:	0761                	addi	a4,a4,24
E:/Project/PlumBL/src/port/common/uf2/ghostfat.c:365 (discriminator 2)
    for (uint32_t i = 0; i < NUM_FILES; i++)
     d82:	fee614e3          	bne	a2,a4,d6a <uf2_read_block+0xca>
     d86:	b795                	j	cea <uf2_read_block+0x4a>
E:/Project/PlumBL/src/port/common/uf2/ghostfat.c:352
        data16[i] = cluster + 1;
     d88:	00a61023          	sh	a0,0(a2)
     d8c:	bf4d                	j	d3e <uf2_read_block+0x9e>
E:/Project/PlumBL/src/port/common/uf2/ghostfat.c:379
  else if ( block_no < FS_START_CLUSTERS_SECTOR )
     d8e:	20800793          	li	a5,520
     d92:	0c97ea63          	bltu	a5,s1,e66 <uf2_read_block+0x1c6>
E:/Project/PlumBL/src/port/common/uf2/ghostfat.c:389
    if ( sectionRelativeSector == 0 )
     d96:	20500793          	li	a5,517
     d9a:	f4f498e3          	bne	s1,a5,cea <uf2_read_block+0x4a>
E:/Project/PlumBL/src/port/common/uf2/ghostfat.c:392
      padded_memcpy(d->name, (char const*) BootBlock.VolumeLabel, 11);
     d9e:	8522                	mv	a0,s0
     da0:	462d                	li	a2,11
     da2:	00003597          	auipc	a1,0x3
     da6:	f0158593          	addi	a1,a1,-255 # 3ca3 <BootBlock+0x2b>
     daa:	3dd1                	jal	c7e <padded_memcpy>
E:/Project/PlumBL/src/port/common/uf2/ghostfat.c:393
      d->attrs = 0x28;
     dac:	02800793          	li	a5,40
     db0:	00f405a3          	sb	a5,11(s0)
E:/Project/PlumBL/src/port/common/uf2/ghostfat.c:394
      d++;
     db4:	02040493          	addi	s1,s0,32
E:/Project/PlumBL/src/port/common/uf2/ghostfat.c:397
      startingFileIndex = 0;
     db8:	20000917          	auipc	s2,0x20000
     dbc:	d0c90913          	addi	s2,s2,-756 # 20000ac4 <_highcode_vma_end>
     dc0:	08040413          	addi	s0,s0,128
E:/Project/PlumBL/src/port/common/uf2/ghostfat.c:413
      d->createTimeFine   = COMPILE_SECONDS_INT % 2 * 100;
     dc4:	06400c13          	li	s8,100
E:/Project/PlumBL/src/port/common/uf2/ghostfat.c:414
      d->createTime       = COMPILE_DOS_TIME;
     dc8:	02900b13          	li	s6,41
     dcc:	fa600b93          	li	s7,-90
E:/Project/PlumBL/src/port/common/uf2/ghostfat.c:415
      d->createDate       = COMPILE_DOS_DATE;
     dd0:	fd200a13          	li	s4,-46
     dd4:	05600a93          	li	s5,86
E:/Project/PlumBL/src/port/common/uf2/ghostfat.c:421
      d->size             = (inf->content ? inf->size : UF2_BYTE_COUNT);
     dd8:	20001c97          	auipc	s9,0x20001
     ddc:	f08c8c93          	addi	s9,s9,-248 # 20001ce0 <_sbss>
E:/Project/PlumBL/src/port/common/uf2/ghostfat.c:409
      uint32_t const startCluster = info[fileIndex].cluster_start;
     de0:	01495983          	lhu	s3,20(s2)
E:/Project/PlumBL/src/port/common/uf2/ghostfat.c:412
      padded_memcpy(d->name, inf->name, 11);
     de4:	462d                	li	a2,11
     de6:	85ca                	mv	a1,s2
     de8:	8526                	mv	a0,s1
     dea:	3d51                	jal	c7e <padded_memcpy>
E:/Project/PlumBL/src/port/common/uf2/ghostfat.c:413
      d->createTimeFine   = COMPILE_SECONDS_INT % 2 * 100;
     dec:	018486a3          	sb	s8,13(s1)
E:/Project/PlumBL/src/port/common/uf2/ghostfat.c:421
      d->size             = (inf->content ? inf->size : UF2_BYTE_COUNT);
     df0:	00c92783          	lw	a5,12(s2)
E:/Project/PlumBL/src/port/common/uf2/ghostfat.c:420
      d->startCluster     = startCluster & 0xFFFF;
     df4:	01348d23          	sb	s3,26(s1)
     df8:	0089d993          	srli	s3,s3,0x8
E:/Project/PlumBL/src/port/common/uf2/ghostfat.c:414
      d->createTime       = COMPILE_DOS_TIME;
     dfc:	01648723          	sb	s6,14(s1)
     e00:	017487a3          	sb	s7,15(s1)
E:/Project/PlumBL/src/port/common/uf2/ghostfat.c:415
      d->createDate       = COMPILE_DOS_DATE;
     e04:	01448823          	sb	s4,16(s1)
     e08:	015488a3          	sb	s5,17(s1)
E:/Project/PlumBL/src/port/common/uf2/ghostfat.c:416
      d->lastAccessDate   = COMPILE_DOS_DATE;
     e0c:	01448923          	sb	s4,18(s1)
     e10:	015489a3          	sb	s5,19(s1)
E:/Project/PlumBL/src/port/common/uf2/ghostfat.c:417
      d->highStartCluster = startCluster >> 16;
     e14:	00048a23          	sb	zero,20(s1)
     e18:	00048aa3          	sb	zero,21(s1)
E:/Project/PlumBL/src/port/common/uf2/ghostfat.c:418
      d->updateTime       = COMPILE_DOS_TIME;
     e1c:	01648b23          	sb	s6,22(s1)
     e20:	01748ba3          	sb	s7,23(s1)
E:/Project/PlumBL/src/port/common/uf2/ghostfat.c:419
      d->updateDate       = COMPILE_DOS_DATE;
     e24:	01448c23          	sb	s4,24(s1)
     e28:	01548ca3          	sb	s5,25(s1)
E:/Project/PlumBL/src/port/common/uf2/ghostfat.c:420
      d->startCluster     = startCluster & 0xFFFF;
     e2c:	01348da3          	sb	s3,27(s1)
E:/Project/PlumBL/src/port/common/uf2/ghostfat.c:421
      d->size             = (inf->content ? inf->size : UF2_BYTE_COUNT);
     e30:	c795                	beqz	a5,e5c <uf2_read_block+0x1bc>
E:/Project/PlumBL/src/port/common/uf2/ghostfat.c:421 (discriminator 1)
     e32:	01092783          	lw	a5,16(s2)
E:/Project/PlumBL/src/port/common/uf2/ghostfat.c:421 (discriminator 4)
     e36:	0087d713          	srli	a4,a5,0x8
     e3a:	00f48e23          	sb	a5,28(s1)
     e3e:	00e48ea3          	sb	a4,29(s1)
     e42:	0107d713          	srli	a4,a5,0x10
     e46:	83e1                	srli	a5,a5,0x18
     e48:	00e48f23          	sb	a4,30(s1)
     e4c:	00f48fa3          	sb	a5,31(s1)
E:/Project/PlumBL/src/port/common/uf2/ghostfat.c:406 (discriminator 4)
          fileIndex++, d++ )
     e50:	02048493          	addi	s1,s1,32
     e54:	0961                	addi	s2,s2,24
E:/Project/PlumBL/src/port/common/uf2/ghostfat.c:405 (discriminator 4)
          remainingEntries > 0 && fileIndex < NUM_FILES; // while space remains in buffer and more files to add...
     e56:	f88495e3          	bne	s1,s0,de0 <uf2_read_block+0x140>
     e5a:	bd41                	j	cea <uf2_read_block+0x4a>
E:/Project/PlumBL/src/port/common/uf2/ghostfat.c:421 (discriminator 2)
      d->size             = (inf->content ? inf->size : UF2_BYTE_COUNT);
     e5c:	000ca783          	lw	a5,0(s9)
     e60:	83a1                	srli	a5,a5,0x8
     e62:	07a6                	slli	a5,a5,0x9
     e64:	bfc9                	j	e36 <uf2_read_block+0x196>
E:/Project/PlumBL/src/port/common/uf2/ghostfat.c:424
  else if ( block_no < BPB_TOTAL_SECTORS )
     e66:	67c1                	lui	a5,0x10
     e68:	10878793          	addi	a5,a5,264 # 10108 <_data_lma+0xbec4>
     e6c:	e697efe3          	bltu	a5,s1,cea <uf2_read_block+0x4a>
E:/Project/PlumBL/src/port/common/uf2/ghostfat.c:430
    uint32_t fid = info_index_of(2 + sectionRelativeSector / BPB_SECTORS_PER_CLUSTER);
     e70:	20000717          	auipc	a4,0x20000
     e74:	c5470713          	addi	a4,a4,-940 # 20000ac4 <_highcode_vma_end>
     e78:	df948493          	addi	s1,s1,-519
info_index_of():
E:/Project/PlumBL/src/port/common/uf2/ghostfat.c:265
  for (uint32_t i = 0; i < NUM_FILES; i++)
     e7c:	4781                	li	a5,0
     e7e:	86ba                	mv	a3,a4
     e80:	460d                	li	a2,3
E:/Project/PlumBL/src/port/common/uf2/ghostfat.c:267
    if ( (info[i].cluster_start <= cluster) && (cluster <= info[i].cluster_end) )
     e82:	01475583          	lhu	a1,20(a4)
     e86:	00b4e663          	bltu	s1,a1,e92 <uf2_read_block+0x1f2>
     e8a:	01675583          	lhu	a1,22(a4)
     e8e:	0095f763          	bgeu	a1,s1,e9c <uf2_read_block+0x1fc>
E:/Project/PlumBL/src/port/common/uf2/ghostfat.c:265
  for (uint32_t i = 0; i < NUM_FILES; i++)
     e92:	0785                	addi	a5,a5,1
     e94:	0761                	addi	a4,a4,24
     e96:	fec796e3          	bne	a5,a2,e82 <uf2_read_block+0x1e2>
E:/Project/PlumBL/src/port/common/uf2/ghostfat.c:273
  return FID_UF2;
     e9a:	4789                	li	a5,2
uf2_read_block():
E:/Project/PlumBL/src/port/common/uf2/ghostfat.c:433
    uint32_t fileRelativeSector = sectionRelativeSector - (info[fid].cluster_start-2) * BPB_SECTORS_PER_CLUSTER;
     e9c:	4761                	li	a4,24
     e9e:	02e78733          	mul	a4,a5,a4
E:/Project/PlumBL/src/port/common/uf2/ghostfat.c:435
    if ( fid != FID_UF2 )
     ea2:	4609                	li	a2,2
E:/Project/PlumBL/src/port/common/uf2/ghostfat.c:433
    uint32_t fileRelativeSector = sectionRelativeSector - (info[fid].cluster_start-2) * BPB_SECTORS_PER_CLUSTER;
     ea4:	9736                	add	a4,a4,a3
     ea6:	01475583          	lhu	a1,20(a4)
     eaa:	8c8d                	sub	s1,s1,a1
E:/Project/PlumBL/src/port/common/uf2/ghostfat.c:435
    if ( fid != FID_UF2 )
     eac:	04c78263          	beq	a5,a2,ef0 <uf2_read_block+0x250>
E:/Project/PlumBL/src/port/common/uf2/ghostfat.c:439
      size_t fileContentLength = inf->size;
     eb0:	4b10                	lw	a2,16(a4)
E:/Project/PlumBL/src/port/common/uf2/ghostfat.c:438
      size_t fileContentStartOffset = fileRelativeSector * BPB_SECTOR_SIZE;
     eb2:	04a6                	slli	s1,s1,0x9
E:/Project/PlumBL/src/port/common/uf2/ghostfat.c:442
      if (fileContentLength > fileContentStartOffset) {
     eb4:	e2c4fbe3          	bgeu	s1,a2,cea <uf2_read_block+0x4a>
E:/Project/PlumBL/src/port/common/uf2/ghostfat.c:446
        size_t bytesToCopy = fileContentLength - fileContentStartOffset;
     eb8:	8e05                	sub	a2,a2,s1
E:/Project/PlumBL/src/port/common/uf2/ghostfat.c:451
        memcpy(data, dataStart, bytesToCopy);
     eba:	20000713          	li	a4,512
     ebe:	00c77463          	bgeu	a4,a2,ec6 <uf2_read_block+0x226>
     ec2:	20000613          	li	a2,512
E:/Project/PlumBL/src/port/common/uf2/ghostfat.c:444
        const void * dataStart = (inf->content) + fileContentStartOffset;
     ec6:	4761                	li	a4,24
     ec8:	02e787b3          	mul	a5,a5,a4
E:/Project/PlumBL/src/port/common/uf2/ghostfat.c:451
        memcpy(data, dataStart, bytesToCopy);
     ecc:	8522                	mv	a0,s0
E:/Project/PlumBL/src/port/common/uf2/ghostfat.c:475
}
     ece:	5422                	lw	s0,40(sp)
     ed0:	50b2                	lw	ra,44(sp)
     ed2:	5902                	lw	s2,32(sp)
     ed4:	49f2                	lw	s3,28(sp)
     ed6:	4a62                	lw	s4,24(sp)
     ed8:	4ad2                	lw	s5,20(sp)
     eda:	4b42                	lw	s6,16(sp)
     edc:	4bb2                	lw	s7,12(sp)
E:/Project/PlumBL/src/port/common/uf2/ghostfat.c:444
        const void * dataStart = (inf->content) + fileContentStartOffset;
     ede:	97b6                	add	a5,a5,a3
     ee0:	47cc                	lw	a1,12(a5)
E:/Project/PlumBL/src/port/common/uf2/ghostfat.c:475
}
     ee2:	4c22                	lw	s8,8(sp)
     ee4:	4c92                	lw	s9,4(sp)
E:/Project/PlumBL/src/port/common/uf2/ghostfat.c:451
        memcpy(data, dataStart, bytesToCopy);
     ee6:	95a6                	add	a1,a1,s1
E:/Project/PlumBL/src/port/common/uf2/ghostfat.c:475
}
     ee8:	5492                	lw	s1,36(sp)
     eea:	6145                	addi	sp,sp,48
E:/Project/PlumBL/src/port/common/uf2/ghostfat.c:451
        memcpy(data, dataStart, bytesToCopy);
     eec:	1e90106f          	j	28d4 <memcpy>
E:/Project/PlumBL/src/port/common/uf2/ghostfat.c:458
      if ( addr < _flash_size ) // TODO abstract this out
     ef0:	20001797          	auipc	a5,0x20001
     ef4:	df078793          	addi	a5,a5,-528 # 20001ce0 <_sbss>
     ef8:	439c                	lw	a5,0(a5)
E:/Project/PlumBL/src/port/common/uf2/ghostfat.c:457
      uint32_t addr = BOARD_FLASH_APP_START + (fileRelativeSector * UF2_FIRMWARE_BYTES_PER_SECTOR);
     efa:	00849513          	slli	a0,s1,0x8
E:/Project/PlumBL/src/port/common/uf2/ghostfat.c:458
      if ( addr < _flash_size ) // TODO abstract this out
     efe:	def576e3          	bgeu	a0,a5,cea <uf2_read_block+0x4a>
E:/Project/PlumBL/src/port/common/uf2/ghostfat.c:461
        bl->magicStart0 = UF2_MAGIC_START0;
     f02:	0a324737          	lui	a4,0xa324
     f06:	65570713          	addi	a4,a4,1621 # a324655 <_data_lma+0xa320411>
     f0a:	c018                	sw	a4,0(s0)
E:/Project/PlumBL/src/port/common/uf2/ghostfat.c:465
        bl->numBlocks = UF2_SECTOR_COUNT;
     f0c:	83a1                	srli	a5,a5,0x8
E:/Project/PlumBL/src/port/common/uf2/ghostfat.c:462
        bl->magicStart1 = UF2_MAGIC_START1;
     f0e:	9e5d5737          	lui	a4,0x9e5d5
E:/Project/PlumBL/src/port/common/uf2/ghostfat.c:465
        bl->numBlocks = UF2_SECTOR_COUNT;
     f12:	cc1c                	sw	a5,24(s0)
E:/Project/PlumBL/src/port/common/uf2/ghostfat.c:462
        bl->magicStart1 = UF2_MAGIC_START1;
     f14:	15770713          	addi	a4,a4,343 # 9e5d5157 <_eusrstack+0x7e5cd15b>
E:/Project/PlumBL/src/port/common/uf2/ghostfat.c:467
        bl->payloadSize = UF2_FIRMWARE_BYTES_PER_SECTOR;
     f18:	10000793          	li	a5,256
E:/Project/PlumBL/src/port/common/uf2/ghostfat.c:462
        bl->magicStart1 = UF2_MAGIC_START1;
     f1c:	c058                	sw	a4,4(s0)
E:/Project/PlumBL/src/port/common/uf2/ghostfat.c:467
        bl->payloadSize = UF2_FIRMWARE_BYTES_PER_SECTOR;
     f1e:	c81c                	sw	a5,16(s0)
E:/Project/PlumBL/src/port/common/uf2/ghostfat.c:463
        bl->magicEnd = UF2_MAGIC_END;
     f20:	0ab17737          	lui	a4,0xab17
E:/Project/PlumBL/src/port/common/uf2/ghostfat.c:468
        bl->flags = UF2_FLAG_FAMILYID;
     f24:	6789                	lui	a5,0x2
     f26:	c41c                	sw	a5,8(s0)
E:/Project/PlumBL/src/port/common/uf2/ghostfat.c:463
        bl->magicEnd = UF2_MAGIC_END;
     f28:	f3070713          	addi	a4,a4,-208 # ab16f30 <_data_lma+0xab12cec>
E:/Project/PlumBL/src/port/common/uf2/ghostfat.c:469
        bl->familyID = BOARD_UF2_FAMILY_ID;
     f2c:	abcd07b7          	lui	a5,0xabcd0
E:/Project/PlumBL/src/port/common/uf2/ghostfat.c:464
        bl->blockNo = fileRelativeSector;
     f30:	c844                	sw	s1,20(s0)
E:/Project/PlumBL/src/port/common/uf2/ghostfat.c:463
        bl->magicEnd = UF2_MAGIC_END;
     f32:	1ee42e23          	sw	a4,508(s0)
E:/Project/PlumBL/src/port/common/uf2/ghostfat.c:466
        bl->targetAddr = addr;
     f36:	c448                	sw	a0,12(s0)
E:/Project/PlumBL/src/port/common/uf2/ghostfat.c:469
        bl->familyID = BOARD_UF2_FAMILY_ID;
     f38:	cc5c                	sw	a5,28(s0)
E:/Project/PlumBL/src/port/common/uf2/ghostfat.c:471
        board_flash_read(addr, bl->data, bl->payloadSize);
     f3a:	02040593          	addi	a1,s0,32
E:/Project/PlumBL/src/port/common/uf2/ghostfat.c:475
}
     f3e:	5422                	lw	s0,40(sp)
     f40:	50b2                	lw	ra,44(sp)
     f42:	5492                	lw	s1,36(sp)
     f44:	5902                	lw	s2,32(sp)
     f46:	49f2                	lw	s3,28(sp)
     f48:	4a62                	lw	s4,24(sp)
     f4a:	4ad2                	lw	s5,20(sp)
     f4c:	4b42                	lw	s6,16(sp)
     f4e:	4bb2                	lw	s7,12(sp)
     f50:	4c22                	lw	s8,8(sp)
     f52:	4c92                	lw	s9,4(sp)
E:/Project/PlumBL/src/port/common/uf2/ghostfat.c:471
        board_flash_read(addr, bl->data, bl->payloadSize);
     f54:	10000613          	li	a2,256
E:/Project/PlumBL/src/port/common/uf2/ghostfat.c:475
}
     f58:	6145                	addi	sp,sp,48
E:/Project/PlumBL/src/port/common/uf2/ghostfat.c:471
        board_flash_read(addr, bl->data, bl->payloadSize);
     f5a:	a27d                	j	1108 <board_flash_read>

00000f5c <uf2_write_block>:
is_uf2_block():
E:/Project/PlumBL/src/port/common/uf2/ghostfat.c:231
         (bl->flags & UF2_FLAG_FAMILYID) &&
     f5c:	4198                	lw	a4,0(a1)
     f5e:	0a3247b7          	lui	a5,0xa324
     f62:	65578793          	addi	a5,a5,1621 # a324655 <_data_lma+0xa320411>
uf2_write_block():
E:/Project/PlumBL/src/port/common/uf2/ghostfat.c:492
 */
int uf2_write_block (uint32_t block_no, uint8_t *data, WriteState *state)
{
  (void) block_no;
  UF2_Block *bl = (void*) data;
  if ( !is_uf2_block(bl) ) return -1;
     f66:	557d                	li	a0,-1
is_uf2_block():
E:/Project/PlumBL/src/port/common/uf2/ghostfat.c:231
         (bl->flags & UF2_FLAG_FAMILYID) &&
     f68:	0af71d63          	bne	a4,a5,1022 <uf2_write_block+0xc6>
E:/Project/PlumBL/src/port/common/uf2/ghostfat.c:228
  return (bl->magicStart0 == UF2_MAGIC_START0) &&
     f6c:	41d8                	lw	a4,4(a1)
     f6e:	9e5d57b7          	lui	a5,0x9e5d5
     f72:	15778793          	addi	a5,a5,343 # 9e5d5157 <_eusrstack+0x7e5cd15b>
     f76:	0af71663          	bne	a4,a5,1022 <uf2_write_block+0xc6>
E:/Project/PlumBL/src/port/common/uf2/ghostfat.c:229
         (bl->magicStart1 == UF2_MAGIC_START1) &&
     f7a:	1fc5a703          	lw	a4,508(a1)
     f7e:	0ab177b7          	lui	a5,0xab17
     f82:	f3078793          	addi	a5,a5,-208 # ab16f30 <_data_lma+0xab12cec>
     f86:	08f71e63          	bne	a4,a5,1022 <uf2_write_block+0xc6>
E:/Project/PlumBL/src/port/common/uf2/ghostfat.c:231
         (bl->flags & UF2_FLAG_FAMILYID) &&
     f8a:	459c                	lw	a5,8(a1)
     f8c:	6709                	lui	a4,0x2
     f8e:	00170693          	addi	a3,a4,1 # 2001 <usbd_msc_send_csw+0x13>
     f92:	8ff5                	and	a5,a5,a3
     f94:	08e79763          	bne	a5,a4,1022 <uf2_write_block+0xc6>
uf2_write_block():
E:/Project/PlumBL/src/port/common/uf2/ghostfat.c:494

  if (bl->familyID == BOARD_UF2_FAMILY_ID)
     f98:	4dd8                	lw	a4,28(a1)
     f9a:	abcd07b7          	lui	a5,0xabcd0
     f9e:	08f71263          	bne	a4,a5,1022 <uf2_write_block+0xc6>
E:/Project/PlumBL/src/port/common/uf2/ghostfat.c:489
{
     fa2:	1141                	addi	sp,sp,-16
     fa4:	c422                	sw	s0,8(sp)
     fa6:	842e                	mv	s0,a1
     fa8:	c226                	sw	s1,4(sp)
E:/Project/PlumBL/src/port/common/uf2/ghostfat.c:497
  {
    // generic family ID
    board_flash_write(bl->targetAddr, bl->data, bl->payloadSize);
     faa:	4448                	lw	a0,12(s0)
     fac:	84b2                	mv	s1,a2
     fae:	4990                	lw	a2,16(a1)
     fb0:	02058593          	addi	a1,a1,32
E:/Project/PlumBL/src/port/common/uf2/ghostfat.c:489
{
     fb4:	c606                	sw	ra,12(sp)
E:/Project/PlumBL/src/port/common/uf2/ghostfat.c:497
    board_flash_write(bl->targetAddr, bl->data, bl->payloadSize);
     fb6:	2a91                	jal	110a <board_flash_write>
E:/Project/PlumBL/src/port/common/uf2/ghostfat.c:505
    // TODO family matches VID/PID
    return -1;
  }

  //------------- Update written blocks -------------//
  if ( bl->numBlocks )
     fb8:	4c1c                	lw	a5,24(s0)
     fba:	eb81                	bnez	a5,fca <uf2_write_block+0x6e>
E:/Project/PlumBL/src/port/common/uf2/ghostfat.c:538
      }
    }
  }

  return BPB_SECTOR_SIZE;
}
     fbc:	40b2                	lw	ra,12(sp)
     fbe:	4422                	lw	s0,8(sp)
     fc0:	4492                	lw	s1,4(sp)
E:/Project/PlumBL/src/port/common/uf2/ghostfat.c:537
  return BPB_SECTOR_SIZE;
     fc2:	20000513          	li	a0,512
E:/Project/PlumBL/src/port/common/uf2/ghostfat.c:538
}
     fc6:	0141                	addi	sp,sp,16
     fc8:	8082                	ret
E:/Project/PlumBL/src/port/common/uf2/ghostfat.c:508
    if ( state->numBlocks != bl->numBlocks )
     fca:	4094                	lw	a3,0(s1)
     fcc:	00d78a63          	beq	a5,a3,fe0 <uf2_write_block+0x84>
E:/Project/PlumBL/src/port/common/uf2/ghostfat.c:510
      if ( bl->numBlocks >= MAX_BLOCKS || state->numBlocks )
     fd0:	6711                	lui	a4,0x4
     fd2:	06370713          	addi	a4,a4,99 # 4063 <msc_flash_descriptor+0x2bf>
     fd6:	00f76363          	bltu	a4,a5,fdc <uf2_write_block+0x80>
E:/Project/PlumBL/src/port/common/uf2/ghostfat.c:510 (discriminator 1)
     fda:	c291                	beqz	a3,fde <uf2_write_block+0x82>
E:/Project/PlumBL/src/port/common/uf2/ghostfat.c:511
        state->numBlocks = 0xffffffff;
     fdc:	57fd                	li	a5,-1
E:/Project/PlumBL/src/port/common/uf2/ghostfat.c:513
        state->numBlocks = bl->numBlocks;
     fde:	c09c                	sw	a5,0(s1)
E:/Project/PlumBL/src/port/common/uf2/ghostfat.c:516
    if ( bl->blockNo < MAX_BLOCKS )
     fe0:	485c                	lw	a5,20(s0)
     fe2:	6711                	lui	a4,0x4
     fe4:	06370713          	addi	a4,a4,99 # 4063 <msc_flash_descriptor+0x2bf>
     fe8:	fcf76ae3          	bltu	a4,a5,fbc <uf2_write_block+0x60>
E:/Project/PlumBL/src/port/common/uf2/ghostfat.c:518
      uint8_t const mask = 1 << (bl->blockNo % 8);
     fec:	0077f693          	andi	a3,a5,7
E:/Project/PlumBL/src/port/common/uf2/ghostfat.c:519
      uint32_t const pos = bl->blockNo / 8;
     ff0:	838d                	srli	a5,a5,0x3
E:/Project/PlumBL/src/port/common/uf2/ghostfat.c:518
      uint8_t const mask = 1 << (bl->blockNo % 8);
     ff2:	4705                	li	a4,1
E:/Project/PlumBL/src/port/common/uf2/ghostfat.c:522
      if ( !(state->writtenMask[pos] & mask) )
     ff4:	97a6                	add	a5,a5,s1
E:/Project/PlumBL/src/port/common/uf2/ghostfat.c:518
      uint8_t const mask = 1 << (bl->blockNo % 8);
     ff6:	00d71733          	sll	a4,a4,a3
E:/Project/PlumBL/src/port/common/uf2/ghostfat.c:522
      if ( !(state->writtenMask[pos] & mask) )
     ffa:	0097c683          	lbu	a3,9(a5) # abcd0009 <_eusrstack+0x8bcc800d>
E:/Project/PlumBL/src/port/common/uf2/ghostfat.c:518
      uint8_t const mask = 1 << (bl->blockNo % 8);
     ffe:	0ff77713          	andi	a4,a4,255
E:/Project/PlumBL/src/port/common/uf2/ghostfat.c:522
      if ( !(state->writtenMask[pos] & mask) )
    1002:	00e6f633          	and	a2,a3,a4
    1006:	ea01                	bnez	a2,1016 <uf2_write_block+0xba>
    1008:	40d0                	lw	a2,4(s1)
E:/Project/PlumBL/src/port/common/uf2/ghostfat.c:524
        state->writtenMask[pos] |= mask;
    100a:	8f55                	or	a4,a4,a3
    100c:	00e784a3          	sb	a4,9(a5)
E:/Project/PlumBL/src/port/common/uf2/ghostfat.c:525
        state->numWritten++;
    1010:	00160793          	addi	a5,a2,1
    1014:	c0dc                	sw	a5,4(s1)
E:/Project/PlumBL/src/port/common/uf2/ghostfat.c:530
      if ( state->numWritten >= state->numBlocks )
    1016:	40d8                	lw	a4,4(s1)
    1018:	409c                	lw	a5,0(s1)
    101a:	faf761e3          	bltu	a4,a5,fbc <uf2_write_block+0x60>
E:/Project/PlumBL/src/port/common/uf2/ghostfat.c:532
        board_flash_flush();
    101e:	2235                	jal	114a <board_flash_flush>
    1020:	bf71                	j	fbc <uf2_write_block+0x60>
E:/Project/PlumBL/src/port/common/uf2/ghostfat.c:538
}
    1022:	8082                	ret

00001024 <usbd_configure_done_callback>:
usbd_configure_done_callback():
E:/Project/PlumBL/src/port/common/uf2/msc_flash.c:97
};

void usbd_configure_done_callback(void)
{
    /* do nothing */
}
    1024:	8082                	ret

00001026 <usbd_msc_get_cap>:
usbd_msc_get_cap():
E:/Project/PlumBL/src/port/common/uf2/msc_flash.c:107
#include "uf2.h"
static WriteState _wr_state = { 0 };

void usbd_msc_get_cap(uint8_t lun, uint32_t *block_num, uint16_t *block_size)
{
    *block_num = BLOCK_COUNT; // Pretend having so many buffer,not has actually.
    1026:	000c07b7          	lui	a5,0xc0
    102a:	c19c                	sw	a5,0(a1)
E:/Project/PlumBL/src/port/common/uf2/msc_flash.c:108
    *block_size = BLOCK_SIZE;
    102c:	20000793          	li	a5,512
    1030:	00f61023          	sh	a5,0(a2)
E:/Project/PlumBL/src/port/common/uf2/msc_flash.c:109
}
    1034:	8082                	ret

00001036 <usbd_msc_sector_read>:
usbd_msc_sector_read():
E:/Project/PlumBL/src/port/common/uf2/msc_flash.c:113

int usbd_msc_sector_read(uint32_t sector, uint8_t *buffer, uint32_t length)
{
    if (sector < BLOCK_COUNT) {
    1036:	000c07b7          	lui	a5,0xc0
    103a:	00f57963          	bgeu	a0,a5,104c <usbd_msc_sector_read+0x16>
E:/Project/PlumBL/src/port/common/uf2/msc_flash.c:112
{
    103e:	1141                	addi	sp,sp,-16
    1040:	c606                	sw	ra,12(sp)
E:/Project/PlumBL/src/port/common/uf2/msc_flash.c:114
        uf2_read_block(sector, buffer);
    1042:	39b9                	jal	ca0 <uf2_read_block>
E:/Project/PlumBL/src/port/common/uf2/msc_flash.c:117
    }
    return 0;
}
    1044:	40b2                	lw	ra,12(sp)
    1046:	4501                	li	a0,0
    1048:	0141                	addi	sp,sp,16
    104a:	8082                	ret
    104c:	4501                	li	a0,0
    104e:	8082                	ret

00001050 <usbd_msc_sector_write>:
usbd_msc_sector_write():
E:/Project/PlumBL/src/port/common/uf2/msc_flash.c:123

int usbd_msc_sector_write(uint32_t sector, uint8_t *buffer, uint32_t length)
{
    static uint8_t state;
    (void)state;
    if (sector < BLOCK_COUNT) {
    1050:	000c07b7          	lui	a5,0xc0
    1054:	04f57363          	bgeu	a0,a5,109a <usbd_msc_sector_write+0x4a>
E:/Project/PlumBL/src/port/common/uf2/msc_flash.c:120
{
    1058:	1141                	addi	sp,sp,-16
E:/Project/PlumBL/src/port/common/uf2/msc_flash.c:128
        /**
         * In the uf2_write_block function, if the uF2 file with this board ID is recognized,
         * the app area will be erased
         */
        state = uf2_write_block(0, buffer, &_wr_state);
    105a:	20001617          	auipc	a2,0x20001
    105e:	caa60613          	addi	a2,a2,-854 # 20001d04 <_wr_state>
    1062:	4501                	li	a0,0
E:/Project/PlumBL/src/port/common/uf2/msc_flash.c:120
{
    1064:	c606                	sw	ra,12(sp)
E:/Project/PlumBL/src/port/common/uf2/msc_flash.c:128
        state = uf2_write_block(0, buffer, &_wr_state);
    1066:	3ddd                	jal	f5c <uf2_write_block>
E:/Project/PlumBL/src/port/common/uf2/msc_flash.c:132
        lgk_boot_log("%d \r\n", state);
    }

    if (_wr_state.numBlocks) {
    1068:	20001797          	auipc	a5,0x20001
    106c:	c9c78793          	addi	a5,a5,-868 # 20001d04 <_wr_state>
    1070:	439c                	lw	a5,0(a5)
    1072:	c385                	beqz	a5,1092 <usbd_msc_sector_write+0x42>
E:/Project/PlumBL/src/port/common/uf2/msc_flash.c:136
        /*!< Burning firmware */
        extern volatile bool is_flashing_flag;
        extern volatile bool flashing_start_flag;
        flashing_start_flag = 1;
    1074:	4785                	li	a5,1
    1076:	20001717          	auipc	a4,0x20001
    107a:	c6f70723          	sb	a5,-914(a4) # 20001ce4 <flashing_start_flag>
E:/Project/PlumBL/src/port/common/uf2/msc_flash.c:137
        is_flashing_flag = !is_flashing_flag;
    107e:	20001797          	auipc	a5,0x20001
    1082:	c677c783          	lbu	a5,-921(a5) # 20001ce5 <is_flashing_flag>
    1086:	0017c793          	xori	a5,a5,1
    108a:	20001717          	auipc	a4,0x20001
    108e:	c4f70da3          	sb	a5,-933(a4) # 20001ce5 <is_flashing_flag>
E:/Project/PlumBL/src/port/common/uf2/msc_flash.c:143
        if (_wr_state.numWritten >= _wr_state.numBlocks) {
            /*!< Do nothing */
        }
    }
    return 0;
}
    1092:	40b2                	lw	ra,12(sp)
    1094:	4501                	li	a0,0
    1096:	0141                	addi	sp,sp,16
    1098:	8082                	ret
E:/Project/PlumBL/src/port/common/uf2/msc_flash.c:132
    if (_wr_state.numBlocks) {
    109a:	20001797          	auipc	a5,0x20001
    109e:	c6a78793          	addi	a5,a5,-918 # 20001d04 <_wr_state>
    10a2:	439c                	lw	a5,0(a5)
    10a4:	c385                	beqz	a5,10c4 <usbd_msc_sector_write+0x74>
E:/Project/PlumBL/src/port/common/uf2/msc_flash.c:136
        flashing_start_flag = 1;
    10a6:	4785                	li	a5,1
    10a8:	20001717          	auipc	a4,0x20001
    10ac:	c2f70e23          	sb	a5,-964(a4) # 20001ce4 <flashing_start_flag>
E:/Project/PlumBL/src/port/common/uf2/msc_flash.c:137
        is_flashing_flag = !is_flashing_flag;
    10b0:	20001797          	auipc	a5,0x20001
    10b4:	c357c783          	lbu	a5,-971(a5) # 20001ce5 <is_flashing_flag>
    10b8:	0017c793          	xori	a5,a5,1
    10bc:	20001717          	auipc	a4,0x20001
    10c0:	c2f704a3          	sb	a5,-983(a4) # 20001ce5 <is_flashing_flag>
E:/Project/PlumBL/src/port/common/uf2/msc_flash.c:143
}
    10c4:	4501                	li	a0,0
    10c6:	8082                	ret

000010c8 <msc_flash_init>:
msc_flash_init():
E:/Project/PlumBL/src/port/common/uf2/msc_flash.c:155
 * @pre              none
 * @param[in]        none
 * @retval           none
 */
void msc_flash_init(void)
{
    10c8:	1141                	addi	sp,sp,-16
E:/Project/PlumBL/src/port/common/uf2/msc_flash.c:156
    usbd_desc_register(msc_flash_descriptor);
    10ca:	00003517          	auipc	a0,0x3
    10ce:	cda50513          	addi	a0,a0,-806 # 3da4 <msc_flash_descriptor>
E:/Project/PlumBL/src/port/common/uf2/msc_flash.c:155
{
    10d2:	c606                	sw	ra,12(sp)
E:/Project/PlumBL/src/port/common/uf2/msc_flash.c:156
    usbd_desc_register(msc_flash_descriptor);
    10d4:	5b1000ef          	jal	ra,1e84 <usbd_desc_register>
E:/Project/PlumBL/src/port/common/uf2/msc_flash.c:158

    usbd_add_interface(usbd_msc_init_intf(&intf0, MSC_OUT_EP, MSC_IN_EP));
    10d8:	08100613          	li	a2,129
    10dc:	4589                	li	a1,2
    10de:	20001517          	auipc	a0,0x20001
    10e2:	43e50513          	addi	a0,a0,1086 # 2000251c <intf0>
    10e6:	6f8010ef          	jal	ra,27de <usbd_msc_init_intf>
    10ea:	5d7000ef          	jal	ra,1ec0 <usbd_add_interface>
E:/Project/PlumBL/src/port/common/uf2/msc_flash.c:160
    usbd_initialize();
}
    10ee:	40b2                	lw	ra,12(sp)
    10f0:	0141                	addi	sp,sp,16
E:/Project/PlumBL/src/port/common/uf2/msc_flash.c:159
    usbd_initialize();
    10f2:	6370006f          	j	1f28 <usbd_initialize>

000010f6 <lgk_boot_port_intf_init>:
lgk_boot_port_intf_init():
E:/Project/PlumBL/src/port/common/uf2/port_uf2.c:10
#include "lgk_boot_core.h"
#include "uf2.h"

/*!< Port for uf2 */
void lgk_boot_port_intf_init(void)
{
    10f6:	1141                	addi	sp,sp,-16
    10f8:	c606                	sw	ra,12(sp)
E:/Project/PlumBL/src/port/common/uf2/port_uf2.c:12
    /*!< uf2_init */
    uf2_init();
    10fa:	3635                	jal	c26 <uf2_init>
E:/Project/PlumBL/src/port/common/uf2/port_uf2.c:17

    /*!< usb msc */
    extern void msc_flash_init(void);
    msc_flash_init();
}
    10fc:	40b2                	lw	ra,12(sp)
    10fe:	0141                	addi	sp,sp,16
E:/Project/PlumBL/src/port/common/uf2/port_uf2.c:16
    msc_flash_init();
    1100:	b7e1                	j	10c8 <msc_flash_init>

00001102 <board_flash_size>:
board_flash_size():
E:/Project/PlumBL/src/port/common/uf2/port_uf2.c:28

// Get size of flash
uint32_t board_flash_size(void)
{
    return BOARD_FLASH_SIZE;
}
    1102:	00070537          	lui	a0,0x70
    1106:	8082                	ret

00001108 <board_flash_read>:
board_flash_read():
E:/Project/PlumBL/src/port/common/uf2/port_uf2.c:33

// Read from flash
void board_flash_read(uint32_t addr, void *buffer, uint32_t len)
{
    lgk_boot_flash_read(addr, buffer, len);
    1108:	a891                	j	115c <lgk_boot_flash_read>

0000110a <board_flash_write>:
board_flash_write():
E:/Project/PlumBL/src/port/common/uf2/port_uf2.c:44
#ifdef USE_MCU_BOOT
    uint32_t limit_address = APP_CODE_START_ADDR;
#else
    uint32_t limit_address = BOARD_FLASH_APP_START;
#endif
    if (addr < limit_address) {
    110a:	67fd                	lui	a5,0x1f
    110c:	02f56e63          	bltu	a0,a5,1148 <board_flash_write+0x3e>
E:/Project/PlumBL/src/port/common/uf2/port_uf2.c:38
{
    1110:	1141                	addi	sp,sp,-16
    1112:	c226                	sw	s1,4(sp)
    1114:	84ae                	mv	s1,a1
    1116:	c422                	sw	s0,8(sp)
E:/Project/PlumBL/src/port/common/uf2/port_uf2.c:58
    if ((addr & (MIN_FLASH_ERASE_SIZE - 1)) == 0) {
        lgk_boot_flash_erase(addr, MIN_FLASH_ERASE_SIZE);
    }
#endif
    // skip the write if contents matches
    if (memcmp(data, (void *)addr, len) != 0) {
    1118:	85aa                	mv	a1,a0
    111a:	842a                	mv	s0,a0
    111c:	8526                	mv	a0,s1
E:/Project/PlumBL/src/port/common/uf2/port_uf2.c:38
{
    111e:	c04a                	sw	s2,0(sp)
    1120:	c606                	sw	ra,12(sp)
    1122:	8932                	mv	s2,a2
E:/Project/PlumBL/src/port/common/uf2/port_uf2.c:58
    if (memcmp(data, (void *)addr, len) != 0) {
    1124:	78a010ef          	jal	ra,28ae <memcmp>
    1128:	c911                	beqz	a0,113c <board_flash_write+0x32>
E:/Project/PlumBL/src/port/common/uf2/port_uf2.c:61
        /*!< Need write new array */
        lgk_boot_log("Write 0x%08lX\r\n", addr);
        lgk_boot_flash_write(addr, (void *)data, len);
    112a:	8522                	mv	a0,s0
E:/Project/PlumBL/src/port/common/uf2/port_uf2.c:64
    }
#endif
}
    112c:	4422                	lw	s0,8(sp)
    112e:	40b2                	lw	ra,12(sp)
E:/Project/PlumBL/src/port/common/uf2/port_uf2.c:61
        lgk_boot_flash_write(addr, (void *)data, len);
    1130:	864a                	mv	a2,s2
    1132:	85a6                	mv	a1,s1
E:/Project/PlumBL/src/port/common/uf2/port_uf2.c:64
}
    1134:	4902                	lw	s2,0(sp)
    1136:	4492                	lw	s1,4(sp)
    1138:	0141                	addi	sp,sp,16
E:/Project/PlumBL/src/port/common/uf2/port_uf2.c:61
        lgk_boot_flash_write(addr, (void *)data, len);
    113a:	a809                	j	114c <lgk_boot_flash_write>
E:/Project/PlumBL/src/port/common/uf2/port_uf2.c:64
}
    113c:	40b2                	lw	ra,12(sp)
    113e:	4422                	lw	s0,8(sp)
    1140:	4492                	lw	s1,4(sp)
    1142:	4902                	lw	s2,0(sp)
    1144:	0141                	addi	sp,sp,16
    1146:	8082                	ret
    1148:	8082                	ret

0000114a <board_flash_flush>:
board_flash_flush():
    114a:	8082                	ret

0000114c <lgk_boot_flash_write>:
lgk_boot_flash_write():
E:/Project/PlumBL/src/port/ch58x/port_common.c:59
    FLASH_ROM_ERASE(start_add, size);
}

void lgk_boot_flash_write(uint32_t start_add, void *buffer, uint32_t size)
{
    FLASH_ROM_WRITE(start_add, (uint8_t *)buffer, size);
    114c:	86b2                	mv	a3,a2
    114e:	862e                	mv	a2,a1
    1150:	85aa                	mv	a1,a0
    1152:	4509                	li	a0,2
    1154:	1ffff317          	auipc	t1,0x1ffff
    1158:	60630067          	jr	1542(t1) # 2000075a <FLASH_EEPROM_CMD>

0000115c <lgk_boot_flash_read>:
lgk_boot_flash_read():
E:/Project/PlumBL/src/port/ch58x/port_common.c:64
}

void lgk_boot_flash_read(uint32_t start_add, void *buffer, uint32_t size)
{
    FLASH_ROM_READ(start_add, buffer, size);
    115c:	a80d                	j	118e <FLASH_ROM_READ>

0000115e <lgk_boot_intf_init>:
lgk_boot_intf_init():
E:/Project/PlumBL/src/port/ch58x/port_common.c:71

void lgk_boot_intf_init(void)
{
    lgk_boot_log("lgk_boot_intf_init \r\n");
    extern void lgk_boot_port_intf_init(void);
    lgk_boot_port_intf_init();
    115e:	bf61                	j	10f6 <lgk_boot_port_intf_init>

00001160 <lgk_boot_sys_init>:
lgk_boot_sys_init():
E:/Project/PlumBL/src/port/ch58x/port_common.c:76
}

void lgk_boot_sys_init(void)
{
    SetSysClock(CLK_SOURCE_PLL_60MHz);
    1160:	04800513          	li	a0,72
    1164:	1ffff317          	auipc	t1,0x1ffff
    1168:	f6230067          	jr	-158(t1) # 200000c6 <SetSysClock>

0000116c <usb_dc_low_level_init>:
PFIC_EnableIRQ():
E:\Project\PlumBL\drv\ch58x_drivers\RVMSIS/core_riscv.h:110
 *
 * @param   IRQn    - Interrupt Numbers
 */
RV_STATIC_INLINE void PFIC_EnableIRQ(IRQn_Type IRQn)
{
    PFIC->IENR[((uint32_t)(IRQn) >> 5)] = (1 << ((uint32_t)(IRQn)&0x1F));
    116c:	e000e7b7          	lui	a5,0xe000e
    1170:	00400737          	lui	a4,0x400
    1174:	10e7a023          	sw	a4,256(a5) # e000e100 <_eusrstack+0xc0006104>
PFIC_EnableFastINT0():
E:\Project\PlumBL\drv\ch58x_drivers\RVMSIS/core_riscv.h:220
 * @param   IRQn  - Interrupt Numbers
 * @param   addr  - interrupt service addr
 */
RV_STATIC_INLINE void PFIC_EnableFastINT0(IRQn_Type IRQn, uint32_t addr)
{
    PFIC->IDCFGR[0] = IRQn;
    1178:	4759                	li	a4,22
    117a:	04e78823          	sb	a4,80(a5)
E:\Project\PlumBL\drv\ch58x_drivers\RVMSIS/core_riscv.h:221
    PFIC->FIADDRR[0] = (addr & 0xFFFFFFFE) | 1;
    117e:	1ffff717          	auipc	a4,0x1ffff
    1182:	17470713          	addi	a4,a4,372 # 200002f2 <USB_IRQHandler>
    1186:	00176713          	ori	a4,a4,1
    118a:	d3b8                	sw	a4,96(a5)
usb_dc_low_level_init():
E:/Project/PlumBL/src/port/ch58x/port_common.c:139
void usb_dc_low_level_init(void)
{
    extern void USB_IRQHandler(void);
    PFIC_EnableIRQ(USB_IRQn);
    PFIC_EnableFastINT0(USB_IRQn, (uint32_t)(void *)USB_IRQHandler);
}
    118c:	8082                	ret

0000118e <FLASH_ROM_READ>:
FLASH_ROM_READ():
E:/Project/PlumBL/drv/ch58x_drivers/StdPeriphDriver/CH58x_flash.c:41
 *
 * @return  none
 */
void FLASH_ROM_READ(uint32_t StartAddr, void *Buffer, uint32_t len)
{
    uint32_t  i, Length = (len + 3) >> 2;
    118e:	060d                	addi	a2,a2,3
    1190:	9a71                	andi	a2,a2,-4
E:/Project/PlumBL/drv/ch58x_drivers/StdPeriphDriver/CH58x_flash.c:45
    uint32_t *pCode = (uint32_t *)StartAddr;
    uint32_t *pBuf = (uint32_t *)Buffer;

    for(i = 0; i < Length; i++)
    1192:	4781                	li	a5,0
    1194:	00f50733          	add	a4,a0,a5
E:/Project/PlumBL/drv/ch58x_drivers/StdPeriphDriver/CH58x_flash.c:45 (discriminator 1)
    1198:	00c79363          	bne	a5,a2,119e <FLASH_ROM_READ+0x10>
E:/Project/PlumBL/drv/ch58x_drivers/StdPeriphDriver/CH58x_flash.c:49
    {
        *pBuf++ = *pCode++;
    }
}
    119c:	8082                	ret
E:/Project/PlumBL/drv/ch58x_drivers/StdPeriphDriver/CH58x_flash.c:47 (discriminator 3)
        *pBuf++ = *pCode++;
    119e:	4314                	lw	a3,0(a4)
    11a0:	00f58733          	add	a4,a1,a5
    11a4:	0791                	addi	a5,a5,4
    11a6:	c314                	sw	a3,0(a4)
    11a8:	b7f5                	j	1194 <FLASH_ROM_READ+0x6>

000011aa <_write>:
_write():
E:/Project/PlumBL/drv/ch58x_drivers/StdPeriphDriver/CH58x_sys.c:374

#ifdef DEBUG
int _write(int fd, char *buf, int size)
{
    int i;
    for(i = 0; i < size; i++)
    11aa:	4781                	li	a5,0
E:/Project/PlumBL/drv/ch58x_drivers/StdPeriphDriver/CH58x_sys.c:380
    {
#if DEBUG == Debug_UART0
        while(R8_UART0_TFC == UART_FIFO_SIZE);                  /* 等待数据发送 */
        R8_UART0_THR = *buf++; /* 发送数据 */
#elif DEBUG == Debug_UART1
        while(R8_UART1_TFC == UART_FIFO_SIZE);                  /* 等待数据发送 */
    11ac:	40003737          	lui	a4,0x40003
    11b0:	46a1                	li	a3,8
E:/Project/PlumBL/drv/ch58x_drivers/StdPeriphDriver/CH58x_sys.c:374 (discriminator 1)
    for(i = 0; i < size; i++)
    11b2:	00c7c463          	blt	a5,a2,11ba <_write+0x10>
E:/Project/PlumBL/drv/ch58x_drivers/StdPeriphDriver/CH58x_sys.c:391
        while(R8_UART3_TFC == UART_FIFO_SIZE);                  /* 等待数据发送 */
        R8_UART3_THR = *buf++; /* 发送数据 */
#endif
    }
    return size;
}
    11b6:	8532                	mv	a0,a2
    11b8:	8082                	ret
E:/Project/PlumBL/drv/ch58x_drivers/StdPeriphDriver/CH58x_sys.c:380 (discriminator 1)
        while(R8_UART1_TFC == UART_FIFO_SIZE);                  /* 等待数据发送 */
    11ba:	40b74503          	lbu	a0,1035(a4) # 4000340b <_eusrstack+0x1fffb40f>
    11be:	fea68ee3          	beq	a3,a0,11ba <_write+0x10>
E:/Project/PlumBL/drv/ch58x_drivers/StdPeriphDriver/CH58x_sys.c:381 (discriminator 2)
        R8_UART1_THR = *buf++; /* 发送数据 */
    11c2:	00f58533          	add	a0,a1,a5
    11c6:	00054503          	lbu	a0,0(a0) # 70000 <_data_lma+0x6bdbc>
E:/Project/PlumBL/drv/ch58x_drivers/StdPeriphDriver/CH58x_sys.c:374 (discriminator 2)
    for(i = 0; i < size; i++)
    11ca:	0785                	addi	a5,a5,1
E:/Project/PlumBL/drv/ch58x_drivers/StdPeriphDriver/CH58x_sys.c:381 (discriminator 2)
        R8_UART1_THR = *buf++; /* 发送数据 */
    11cc:	40a70423          	sb	a0,1032(a4)
    11d0:	b7cd                	j	11b2 <_write+0x8>

000011d2 <main>:
main():
E:/Project/PlumBL/examples/ch58x/main.c:8
#include <stdio.h>
#include <string.h>
#include "CH58x_common.h"

int main(void)
{
    11d2:	1141                	addi	sp,sp,-16
    11d4:	c606                	sw	ra,12(sp)
E:/Project/PlumBL/examples/ch58x/main.c:11
    extern void lgk_boot_sys_init(void);
    extern void lgk_boot_intf_init(void);
    lgk_boot_sys_init();
    11d6:	3769                	jal	1160 <lgk_boot_sys_init>
E:/Project/PlumBL/examples/ch58x/main.c:12
    lgk_boot_intf_init();
    11d8:	3759                	jal	115e <lgk_boot_intf_init>
E:/Project/PlumBL/examples/ch58x/main.c:14 (discriminator 1)
    // Wait until configured
    while (!usb_device_is_configured()) {
    11da:	549000ef          	jal	ra,1f22 <usb_device_is_configured>
    11de:	dd75                	beqz	a0,11da <main+0x8>
E:/Project/PlumBL/examples/ch58x/main.c:19
    }
//    extern void lgk_boot_main(void);
//    lgk_boot_main();
    return 0;
}
    11e0:	40b2                	lw	ra,12(sp)
    11e2:	4501                	li	a0,0
    11e4:	0141                	addi	sp,sp,16
    11e6:	8082                	ret

000011e8 <usbd_set_address>:
usbd_set_address():
E:/Project/PlumBL/CherryUSB/port/ch32/usb_ch58x_dc_usbfs.c:132
    if (address == 0) {
    11e8:	e909                	bnez	a0,11fa <usbd_set_address+0x12>
E:/Project/PlumBL/CherryUSB/port/ch32/usb_ch58x_dc_usbfs.c:133
        CH58x_USBFS_DEV->USB_DEV_AD = (CH58x_USBFS_DEV->USB_DEV_AD & 0x80) | address;
    11ea:	40008737          	lui	a4,0x40008
    11ee:	00374783          	lbu	a5,3(a4) # 40008003 <_eusrstack+0x20000007>
    11f2:	0807f793          	andi	a5,a5,128
    11f6:	00f701a3          	sb	a5,3(a4)
E:/Project/PlumBL/CherryUSB/port/ch32/usb_ch58x_dc_usbfs.c:135
    usb_dc_cfg.address = address;
    11fa:	20001797          	auipc	a5,0x20001
    11fe:	58a78123          	sb	a0,1410(a5) # 2000277c <usb_dc_cfg>
E:/Project/PlumBL/CherryUSB/port/ch32/usb_ch58x_dc_usbfs.c:137
}
    1202:	4501                	li	a0,0
    1204:	8082                	ret

00001206 <usbd_ep_open>:
usbd_ep_open():
E:/Project/PlumBL/CherryUSB/port/ch32/usb_ch58x_dc_usbfs.c:153
    uint8_t epid = USB_EP_GET_IDX(ep_cfg->ep_addr);
    1206:	00054783          	lbu	a5,0(a0)
E:/Project/PlumBL/CherryUSB/port/ch32/usb_ch58x_dc_usbfs.c:154
    if (epid > (USB_NUM_BIDIR_ENDPOINTS - 1)) {
    120a:	4691                	li	a3,4
E:/Project/PlumBL/CherryUSB/port/ch32/usb_ch58x_dc_usbfs.c:153
    uint8_t epid = USB_EP_GET_IDX(ep_cfg->ep_addr);
    120c:	07f7f713          	andi	a4,a5,127
E:/Project/PlumBL/CherryUSB/port/ch32/usb_ch58x_dc_usbfs.c:154
    if (epid > (USB_NUM_BIDIR_ENDPOINTS - 1)) {
    1210:	02e6ff63          	bgeu	a3,a4,124e <usbd_ep_open+0x48>
E:/Project/PlumBL/CherryUSB/port/ch32/usb_ch58x_dc_usbfs.c:151
{
    1214:	1141                	addi	sp,sp,-16
    1216:	c422                	sw	s0,8(sp)
    1218:	842a                	mv	s0,a0
E:/Project/PlumBL/CherryUSB/port/ch32/usb_ch58x_dc_usbfs.c:158
        USB_LOG_ERR("Ep addr %d overflow\r\n", ep_cfg->ep_addr);
    121a:	00003517          	auipc	a0,0x3
    121e:	c1250513          	addi	a0,a0,-1006 # 3e2c <msc_flash_descriptor+0x88>
E:/Project/PlumBL/CherryUSB/port/ch32/usb_ch58x_dc_usbfs.c:151
{
    1222:	c606                	sw	ra,12(sp)
E:/Project/PlumBL/CherryUSB/port/ch32/usb_ch58x_dc_usbfs.c:158
        USB_LOG_ERR("Ep addr %d overflow\r\n", ep_cfg->ep_addr);
    1224:	766010ef          	jal	ra,298a <iprintf>
    1228:	00044583          	lbu	a1,0(s0)
    122c:	00003517          	auipc	a0,0x3
    1230:	c1050513          	addi	a0,a0,-1008 # 3e3c <msc_flash_descriptor+0x98>
    1234:	756010ef          	jal	ra,298a <iprintf>
    1238:	00003517          	auipc	a0,0x3
    123c:	c1c50513          	addi	a0,a0,-996 # 3e54 <msc_flash_descriptor+0xb0>
    1240:	74a010ef          	jal	ra,298a <iprintf>
E:/Project/PlumBL/CherryUSB/port/ch32/usb_ch58x_dc_usbfs.c:177
}
    1244:	40b2                	lw	ra,12(sp)
    1246:	4422                	lw	s0,8(sp)
E:/Project/PlumBL/CherryUSB/port/ch32/usb_ch58x_dc_usbfs.c:159
        return -1;
    1248:	557d                	li	a0,-1
E:/Project/PlumBL/CherryUSB/port/ch32/usb_ch58x_dc_usbfs.c:177
}
    124a:	0141                	addi	sp,sp,16
    124c:	8082                	ret
E:/Project/PlumBL/CherryUSB/port/ch32/usb_ch58x_dc_usbfs.c:165
    if (USB_EP_DIR_IS_IN(ep_cfg->ep_addr)) {
    124e:	01879693          	slli	a3,a5,0x18
    1252:	86e1                	srai	a3,a3,0x18
E:/Project/PlumBL/CherryUSB/port/ch32/usb_ch58x_dc_usbfs.c:163
    uint8_t mps = ep_cfg->ep_mps;
    1254:	00254583          	lbu	a1,2(a0)
E:/Project/PlumBL/CherryUSB/port/ch32/usb_ch58x_dc_usbfs.c:165
    if (USB_EP_DIR_IS_IN(ep_cfg->ep_addr)) {
    1258:	00154603          	lbu	a2,1(a0)
    125c:	20001797          	auipc	a5,0x20001
    1260:	52078793          	addi	a5,a5,1312 # 2000277c <usb_dc_cfg>
    1264:	0006df63          	bgez	a3,1282 <usbd_ep_open+0x7c>
E:/Project/PlumBL/CherryUSB/port/ch32/usb_ch58x_dc_usbfs.c:167
        usb_dc_cfg.ep_in[epid].ep_enable = true;
    1268:	46e1                	li	a3,24
    126a:	02d70733          	mul	a4,a4,a3
    126e:	97ba                	add	a5,a5,a4
    1270:	4705                	li	a4,1
    1272:	00e78623          	sb	a4,12(a5)
E:/Project/PlumBL/CherryUSB/port/ch32/usb_ch58x_dc_usbfs.c:168
        usb_dc_cfg.ep_in[epid].mps = mps;
    1276:	00b78223          	sb	a1,4(a5)
E:/Project/PlumBL/CherryUSB/port/ch32/usb_ch58x_dc_usbfs.c:169
        usb_dc_cfg.ep_in[epid].eptype = ep_cfg->ep_type;
    127a:	00c782a3          	sb	a2,5(a5)
E:/Project/PlumBL/CherryUSB/port/ch32/usb_ch58x_dc_usbfs.c:176
    return 0;
    127e:	4501                	li	a0,0
E:/Project/PlumBL/CherryUSB/port/ch32/usb_ch58x_dc_usbfs.c:177
}
    1280:	8082                	ret
E:/Project/PlumBL/CherryUSB/port/ch32/usb_ch58x_dc_usbfs.c:172
        usb_dc_cfg.ep_out[epid].ep_enable = true;
    1282:	46e1                	li	a3,24
    1284:	02d70733          	mul	a4,a4,a3
    1288:	97ba                	add	a5,a5,a4
    128a:	4705                	li	a4,1
    128c:	08e78223          	sb	a4,132(a5)
E:/Project/PlumBL/CherryUSB/port/ch32/usb_ch58x_dc_usbfs.c:173
        usb_dc_cfg.ep_out[epid].mps = mps;
    1290:	06b78e23          	sb	a1,124(a5)
E:/Project/PlumBL/CherryUSB/port/ch32/usb_ch58x_dc_usbfs.c:174
        usb_dc_cfg.ep_out[epid].eptype = ep_cfg->ep_type;
    1294:	06c78ea3          	sb	a2,125(a5)
    1298:	b7dd                	j	127e <usbd_ep_open+0x78>

0000129a <usbd_ep_close>:
usbd_ep_close():
E:/Project/PlumBL/CherryUSB/port/ch32/usb_ch58x_dc_usbfs.c:189
    if (USB_EP_DIR_IS_IN(ep)) {
    129a:	07f57713          	andi	a4,a0,127
E:/Project/PlumBL/CherryUSB/port/ch32/usb_ch58x_dc_usbfs.c:191
        usb_dc_cfg.ep_in[epid].ep_enable = false;
    129e:	46e1                	li	a3,24
    12a0:	02d70733          	mul	a4,a4,a3
E:/Project/PlumBL/CherryUSB/port/ch32/usb_ch58x_dc_usbfs.c:189
    if (USB_EP_DIR_IS_IN(ep)) {
    12a4:	0562                	slli	a0,a0,0x18
    12a6:	20001797          	auipc	a5,0x20001
    12aa:	4d678793          	addi	a5,a5,1238 # 2000277c <usb_dc_cfg>
    12ae:	8561                	srai	a0,a0,0x18
E:/Project/PlumBL/CherryUSB/port/ch32/usb_ch58x_dc_usbfs.c:191
        usb_dc_cfg.ep_in[epid].ep_enable = false;
    12b0:	97ba                	add	a5,a5,a4
E:/Project/PlumBL/CherryUSB/port/ch32/usb_ch58x_dc_usbfs.c:189
    if (USB_EP_DIR_IS_IN(ep)) {
    12b2:	00055663          	bgez	a0,12be <usbd_ep_close+0x24>
E:/Project/PlumBL/CherryUSB/port/ch32/usb_ch58x_dc_usbfs.c:191
        usb_dc_cfg.ep_in[epid].ep_enable = false;
    12b6:	00078623          	sb	zero,12(a5)
E:/Project/PlumBL/CherryUSB/port/ch32/usb_ch58x_dc_usbfs.c:197
}
    12ba:	4501                	li	a0,0
    12bc:	8082                	ret
E:/Project/PlumBL/CherryUSB/port/ch32/usb_ch58x_dc_usbfs.c:194
        usb_dc_cfg.ep_out[epid].ep_enable = false;
    12be:	08078223          	sb	zero,132(a5)
    12c2:	bfe5                	j	12ba <usbd_ep_close+0x20>

000012c4 <usbd_ep_start_write>:
usbd_ep_start_write():
E:/Project/PlumBL/CherryUSB/port/ch32/usb_ch58x_dc_usbfs.c:218
    uint8_t ep_idx = USB_EP_GET_IDX(ep);
    12c4:	07f57713          	andi	a4,a0,127
E:/Project/PlumBL/CherryUSB/port/ch32/usb_ch58x_dc_usbfs.c:220
    if (!data && data_len) {
    12c8:	e199                	bnez	a1,12ce <usbd_ep_start_write+0xa>
E:/Project/PlumBL/CherryUSB/port/ch32/usb_ch58x_dc_usbfs.c:221 (discriminator 1)
        return -1;
    12ca:	557d                	li	a0,-1
E:/Project/PlumBL/CherryUSB/port/ch32/usb_ch58x_dc_usbfs.c:220 (discriminator 1)
    if (!data && data_len) {
    12cc:	ee55                	bnez	a2,1388 <usbd_ep_start_write+0xc4>
E:/Project/PlumBL/CherryUSB/port/ch32/usb_ch58x_dc_usbfs.c:223
    if (!usb_dc_cfg.ep_in[ep_idx].ep_enable) {
    12ce:	47e1                	li	a5,24
    12d0:	02f707b3          	mul	a5,a4,a5
E:/Project/PlumBL/CherryUSB/port/ch32/usb_ch58x_dc_usbfs.c:217
{
    12d4:	1101                	addi	sp,sp,-32
    12d6:	ca26                	sw	s1,20(sp)
E:/Project/PlumBL/CherryUSB/port/ch32/usb_ch58x_dc_usbfs.c:223
    if (!usb_dc_cfg.ep_in[ep_idx].ep_enable) {
    12d8:	20001497          	auipc	s1,0x20001
    12dc:	4a448493          	addi	s1,s1,1188 # 2000277c <usb_dc_cfg>
E:/Project/PlumBL/CherryUSB/port/ch32/usb_ch58x_dc_usbfs.c:217
{
    12e0:	ce06                	sw	ra,28(sp)
    12e2:	cc22                	sw	s0,24(sp)
    12e4:	c84a                	sw	s2,16(sp)
    12e6:	c64e                	sw	s3,12(sp)
E:/Project/PlumBL/CherryUSB/port/ch32/usb_ch58x_dc_usbfs.c:224
        return -2;
    12e8:	5579                	li	a0,-2
E:/Project/PlumBL/CherryUSB/port/ch32/usb_ch58x_dc_usbfs.c:223
    if (!usb_dc_cfg.ep_in[ep_idx].ep_enable) {
    12ea:	97a6                	add	a5,a5,s1
    12ec:	00c7c683          	lbu	a3,12(a5)
    12f0:	cab1                	beqz	a3,1344 <usbd_ep_start_write+0x80>
E:/Project/PlumBL/CherryUSB/port/ch32/usb_ch58x_dc_usbfs.c:226
    if ((uint32_t)data & 0x03) {
    12f2:	0035f693          	andi	a3,a1,3
E:/Project/PlumBL/CherryUSB/port/ch32/usb_ch58x_dc_usbfs.c:227
        return -3;
    12f6:	5575                	li	a0,-3
E:/Project/PlumBL/CherryUSB/port/ch32/usb_ch58x_dc_usbfs.c:226
    if ((uint32_t)data & 0x03) {
    12f8:	e6b1                	bnez	a3,1344 <usbd_ep_start_write+0x80>
E:/Project/PlumBL/CherryUSB/port/ch32/usb_ch58x_dc_usbfs.c:230
    usb_dc_cfg.ep_in[ep_idx].xfer_buf = (uint8_t *)data;
    12fa:	4415                	li	s0,5
    12fc:	02875433          	divu	s0,a4,s0
    1300:	03000693          	li	a3,48
    1304:	cb8c                	sw	a1,16(a5)
E:/Project/PlumBL/CherryUSB/port/ch32/usb_ch58x_dc_usbfs.c:231
    usb_dc_cfg.ep_in[ep_idx].xfer_len = data_len;
    1306:	cbd0                	sw	a2,20(a5)
E:/Project/PlumBL/CherryUSB/port/ch32/usb_ch58x_dc_usbfs.c:232
    usb_dc_cfg.ep_in[ep_idx].actual_xfer_len = 0;
    1308:	0007ac23          	sw	zero,24(a5)
E:/Project/PlumBL/CherryUSB/port/ch32/usb_ch58x_dc_usbfs.c:234
    if (data_len == 0) {
    130c:	02d40433          	mul	s0,s0,a3
    1310:	00271693          	slli	a3,a4,0x2
    1314:	9436                	add	s0,s0,a3
    1316:	400086b7          	lui	a3,0x40008
    131a:	02068993          	addi	s3,a3,32 # 40008020 <_eusrstack+0x20000024>
    131e:	02268693          	addi	a3,a3,34
    1322:	99a2                	add	s3,s3,s0
    1324:	9436                	add	s0,s0,a3
    1326:	e615                	bnez	a2,1352 <usbd_ep_start_write+0x8e>
E:/Project/PlumBL/CherryUSB/port/ch32/usb_ch58x_dc_usbfs.c:236
        EPn_SET_TX_LEN(ep_idx, 0);
    1328:	00098023          	sb	zero,0(s3)
E:/Project/PlumBL/CherryUSB/port/ch32/usb_ch58x_dc_usbfs.c:238
        if (usb_dc_cfg.ep_in[ep_idx].eptype != USB_ENDPOINT_TYPE_ISOCHRONOUS) {
    132c:	0057c703          	lbu	a4,5(a5)
E:/Project/PlumBL/CherryUSB/port/ch32/usb_ch58x_dc_usbfs.c:253
        if (usb_dc_cfg.ep_in[ep_idx].eptype != USB_ENDPOINT_TYPE_ISOCHRONOUS) {
    1330:	4785                	li	a5,1
    1332:	04f70463          	beq	a4,a5,137a <usbd_ep_start_write+0xb6>
E:/Project/PlumBL/CherryUSB/port/ch32/usb_ch58x_dc_usbfs.c:254
            EPn_SET_TX_VALID(ep_idx);
    1336:	00044783          	lbu	a5,0(s0)
    133a:	0fc7f793          	andi	a5,a5,252
E:/Project/PlumBL/CherryUSB/port/ch32/usb_ch58x_dc_usbfs.c:256
            EPn_SET_TX_ISO_VALID(ep_idx);
    133e:	00f40023          	sb	a5,0(s0)
E:/Project/PlumBL/CherryUSB/port/ch32/usb_ch58x_dc_usbfs.c:259
    return 0;
    1342:	4501                	li	a0,0
E:/Project/PlumBL/CherryUSB/port/ch32/usb_ch58x_dc_usbfs.c:260
}
    1344:	40f2                	lw	ra,28(sp)
    1346:	4462                	lw	s0,24(sp)
    1348:	44d2                	lw	s1,20(sp)
    134a:	4942                	lw	s2,16(sp)
    134c:	49b2                	lw	s3,12(sp)
    134e:	6105                	addi	sp,sp,32
    1350:	8082                	ret
E:/Project/PlumBL/CherryUSB/port/ch32/usb_ch58x_dc_usbfs.c:247
        data_len = MIN(data_len, usb_dc_cfg.ep_in[ep_idx].mps);
    1352:	0047c903          	lbu	s2,4(a5)
    1356:	01267363          	bgeu	a2,s2,135c <usbd_ep_start_write+0x98>
    135a:	8932                	mv	s2,a2
E:/Project/PlumBL/CherryUSB/port/ch32/usb_ch58x_dc_usbfs.c:249
        memcpy(usb_dc_cfg.ep_in[ep_idx].ep_ram_addr, data, data_len);
    135c:	4561                	li	a0,24
    135e:	02a70733          	mul	a4,a4,a0
    1362:	864a                	mv	a2,s2
E:/Project/PlumBL/CherryUSB/port/ch32/usb_ch58x_dc_usbfs.c:251
        EPn_SET_TX_LEN(ep_idx, data_len);
    1364:	0ff97913          	andi	s2,s2,255
E:/Project/PlumBL/CherryUSB/port/ch32/usb_ch58x_dc_usbfs.c:249
        memcpy(usb_dc_cfg.ep_in[ep_idx].ep_ram_addr, data, data_len);
    1368:	94ba                	add	s1,s1,a4
    136a:	4488                	lw	a0,8(s1)
    136c:	568010ef          	jal	ra,28d4 <memcpy>
E:/Project/PlumBL/CherryUSB/port/ch32/usb_ch58x_dc_usbfs.c:251
        EPn_SET_TX_LEN(ep_idx, data_len);
    1370:	01298023          	sb	s2,0(s3)
E:/Project/PlumBL/CherryUSB/port/ch32/usb_ch58x_dc_usbfs.c:253
        if (usb_dc_cfg.ep_in[ep_idx].eptype != USB_ENDPOINT_TYPE_ISOCHRONOUS) {
    1374:	0054c703          	lbu	a4,5(s1)
    1378:	bf65                	j	1330 <usbd_ep_start_write+0x6c>
E:/Project/PlumBL/CherryUSB/port/ch32/usb_ch58x_dc_usbfs.c:256
            EPn_SET_TX_ISO_VALID(ep_idx);
    137a:	00044783          	lbu	a5,0(s0)
    137e:	0fc7f793          	andi	a5,a5,252
    1382:	0017e793          	ori	a5,a5,1
    1386:	bf65                	j	133e <usbd_ep_start_write+0x7a>
E:/Project/PlumBL/CherryUSB/port/ch32/usb_ch58x_dc_usbfs.c:260
}
    1388:	8082                	ret

0000138a <usbd_ep_start_read>:
usbd_ep_start_read():
E:/Project/PlumBL/CherryUSB/port/ch32/usb_ch58x_dc_usbfs.c:281
    uint8_t ep_idx = USB_EP_GET_IDX(ep);
    138a:	07f57693          	andi	a3,a0,127
E:/Project/PlumBL/CherryUSB/port/ch32/usb_ch58x_dc_usbfs.c:283
    if (!data && data_len) {
    138e:	e199                	bnez	a1,1394 <usbd_ep_start_read+0xa>
E:/Project/PlumBL/CherryUSB/port/ch32/usb_ch58x_dc_usbfs.c:284 (discriminator 1)
        return -1;
    1390:	557d                	li	a0,-1
E:/Project/PlumBL/CherryUSB/port/ch32/usb_ch58x_dc_usbfs.c:283 (discriminator 1)
    if (!data && data_len) {
    1392:	e235                	bnez	a2,13f6 <usbd_ep_start_read+0x6c>
E:/Project/PlumBL/CherryUSB/port/ch32/usb_ch58x_dc_usbfs.c:286
    if (!usb_dc_cfg.ep_out[ep_idx].ep_enable) {
    1394:	4761                	li	a4,24
    1396:	02e687b3          	mul	a5,a3,a4
    139a:	20001717          	auipc	a4,0x20001
    139e:	3e270713          	addi	a4,a4,994 # 2000277c <usb_dc_cfg>
E:/Project/PlumBL/CherryUSB/port/ch32/usb_ch58x_dc_usbfs.c:287
        return -2;
    13a2:	5579                	li	a0,-2
E:/Project/PlumBL/CherryUSB/port/ch32/usb_ch58x_dc_usbfs.c:286
    if (!usb_dc_cfg.ep_out[ep_idx].ep_enable) {
    13a4:	973e                	add	a4,a4,a5
    13a6:	08474783          	lbu	a5,132(a4)
    13aa:	c7b1                	beqz	a5,13f6 <usbd_ep_start_read+0x6c>
E:/Project/PlumBL/CherryUSB/port/ch32/usb_ch58x_dc_usbfs.c:289
    if ((uint32_t)data & 0x03) {
    13ac:	0035f793          	andi	a5,a1,3
E:/Project/PlumBL/CherryUSB/port/ch32/usb_ch58x_dc_usbfs.c:290
        return -3;
    13b0:	5575                	li	a0,-3
E:/Project/PlumBL/CherryUSB/port/ch32/usb_ch58x_dc_usbfs.c:289
    if ((uint32_t)data & 0x03) {
    13b2:	e3b1                	bnez	a5,13f6 <usbd_ep_start_read+0x6c>
E:/Project/PlumBL/CherryUSB/port/ch32/usb_ch58x_dc_usbfs.c:293
    usb_dc_cfg.ep_out[ep_idx].xfer_buf = (uint8_t *)data;
    13b4:	4795                	li	a5,5
    13b6:	02f6d7b3          	divu	a5,a3,a5
    13ba:	03000513          	li	a0,48
    13be:	08b72423          	sw	a1,136(a4)
E:/Project/PlumBL/CherryUSB/port/ch32/usb_ch58x_dc_usbfs.c:294
    usb_dc_cfg.ep_out[ep_idx].xfer_len = data_len;
    13c2:	08c72623          	sw	a2,140(a4)
E:/Project/PlumBL/CherryUSB/port/ch32/usb_ch58x_dc_usbfs.c:295
    usb_dc_cfg.ep_out[ep_idx].actual_xfer_len = 0;
    13c6:	08072823          	sw	zero,144(a4)
E:/Project/PlumBL/CherryUSB/port/ch32/usb_ch58x_dc_usbfs.c:302
    if (usb_dc_cfg.ep_out[ep_idx].eptype != USB_ENDPOINT_TYPE_ISOCHRONOUS) {
    13ca:	07d74703          	lbu	a4,125(a4)
    13ce:	02a787b3          	mul	a5,a5,a0
    13d2:	00269513          	slli	a0,a3,0x2
    13d6:	97aa                	add	a5,a5,a0
    13d8:	40008537          	lui	a0,0x40008
    13dc:	02250513          	addi	a0,a0,34 # 40008022 <_eusrstack+0x20000026>
    13e0:	953e                	add	a0,a0,a5
    13e2:	4785                	li	a5,1
    13e4:	00f70a63          	beq	a4,a5,13f8 <usbd_ep_start_read+0x6e>
E:/Project/PlumBL/CherryUSB/port/ch32/usb_ch58x_dc_usbfs.c:303
        EPn_SET_RX_VALID(ep_idx);
    13e8:	00054783          	lbu	a5,0(a0)
    13ec:	0f37f793          	andi	a5,a5,243
E:/Project/PlumBL/CherryUSB/port/ch32/usb_ch58x_dc_usbfs.c:305
        EPn_SET_RX_ISO_VALID(ep_idx);
    13f0:	00f50023          	sb	a5,0(a0)
E:/Project/PlumBL/CherryUSB/port/ch32/usb_ch58x_dc_usbfs.c:307
    return 0;
    13f4:	4501                	li	a0,0
E:/Project/PlumBL/CherryUSB/port/ch32/usb_ch58x_dc_usbfs.c:308
}
    13f6:	8082                	ret
E:/Project/PlumBL/CherryUSB/port/ch32/usb_ch58x_dc_usbfs.c:305
        EPn_SET_RX_ISO_VALID(ep_idx);
    13f8:	00054783          	lbu	a5,0(a0)
    13fc:	0f37f793          	andi	a5,a5,243
    1400:	0047e793          	ori	a5,a5,4
    1404:	b7f5                	j	13f0 <usbd_ep_start_read+0x66>

00001406 <usbd_ep_set_stall>:
usbd_ep_set_stall():
E:/Project/PlumBL/CherryUSB/port/ch32/usb_ch58x_dc_usbfs.c:319
    uint8_t epid = USB_EP_GET_IDX(ep);
    1406:	07f57713          	andi	a4,a0,127
E:/Project/PlumBL/CherryUSB/port/ch32/usb_ch58x_dc_usbfs.c:320
    if (USB_EP_DIR_IS_OUT(ep)) {
    140a:	4795                	li	a5,5
    140c:	02f757b3          	divu	a5,a4,a5
    1410:	03000693          	li	a3,48
    1414:	070a                	slli	a4,a4,0x2
    1416:	0562                	slli	a0,a0,0x18
    1418:	8561                	srai	a0,a0,0x18
    141a:	02d787b3          	mul	a5,a5,a3
    141e:	97ba                	add	a5,a5,a4
    1420:	40008737          	lui	a4,0x40008
    1424:	02270713          	addi	a4,a4,34 # 40008022 <_eusrstack+0x20000026>
    1428:	97ba                	add	a5,a5,a4
E:/Project/PlumBL/CherryUSB/port/ch32/usb_ch58x_dc_usbfs.c:321
        EPn_SET_RX_STALL(epid);
    142a:	0007c703          	lbu	a4,0(a5)
E:/Project/PlumBL/CherryUSB/port/ch32/usb_ch58x_dc_usbfs.c:320
    if (USB_EP_DIR_IS_OUT(ep)) {
    142e:	00054863          	bltz	a0,143e <usbd_ep_set_stall+0x38>
E:/Project/PlumBL/CherryUSB/port/ch32/usb_ch58x_dc_usbfs.c:321
        EPn_SET_RX_STALL(epid);
    1432:	00c76713          	ori	a4,a4,12
E:/Project/PlumBL/CherryUSB/port/ch32/usb_ch58x_dc_usbfs.c:323
        EPn_SET_TX_STALL(epid);
    1436:	00e78023          	sb	a4,0(a5)
E:/Project/PlumBL/CherryUSB/port/ch32/usb_ch58x_dc_usbfs.c:326
}
    143a:	4501                	li	a0,0
    143c:	8082                	ret
E:/Project/PlumBL/CherryUSB/port/ch32/usb_ch58x_dc_usbfs.c:323
        EPn_SET_TX_STALL(epid);
    143e:	00376713          	ori	a4,a4,3
    1442:	bfd5                	j	1436 <usbd_ep_set_stall+0x30>

00001444 <usbd_ep_clear_stall>:
usbd_ep_clear_stall():
E:/Project/PlumBL/CherryUSB/port/ch32/usb_ch58x_dc_usbfs.c:336
    uint8_t epid = USB_EP_GET_IDX(ep);
    1444:	07f57713          	andi	a4,a0,127
E:/Project/PlumBL/CherryUSB/port/ch32/usb_ch58x_dc_usbfs.c:337
    if (USB_EP_DIR_IS_OUT(ep)) {
    1448:	4795                	li	a5,5
    144a:	02f757b3          	divu	a5,a4,a5
    144e:	03000693          	li	a3,48
    1452:	070a                	slli	a4,a4,0x2
    1454:	0562                	slli	a0,a0,0x18
    1456:	8561                	srai	a0,a0,0x18
    1458:	02d787b3          	mul	a5,a5,a3
    145c:	97ba                	add	a5,a5,a4
    145e:	40008737          	lui	a4,0x40008
    1462:	02270713          	addi	a4,a4,34 # 40008022 <_eusrstack+0x20000026>
    1466:	97ba                	add	a5,a5,a4
E:/Project/PlumBL/CherryUSB/port/ch32/usb_ch58x_dc_usbfs.c:338
        EPn_CLR_RX_STALL(epid);
    1468:	0007c703          	lbu	a4,0(a5)
E:/Project/PlumBL/CherryUSB/port/ch32/usb_ch58x_dc_usbfs.c:337
    if (USB_EP_DIR_IS_OUT(ep)) {
    146c:	00054863          	bltz	a0,147c <usbd_ep_clear_stall+0x38>
E:/Project/PlumBL/CherryUSB/port/ch32/usb_ch58x_dc_usbfs.c:338
        EPn_CLR_RX_STALL(epid);
    1470:	07377713          	andi	a4,a4,115
E:/Project/PlumBL/CherryUSB/port/ch32/usb_ch58x_dc_usbfs.c:340
        EPn_CLR_TX_STALL(epid);
    1474:	00e78023          	sb	a4,0(a5)
E:/Project/PlumBL/CherryUSB/port/ch32/usb_ch58x_dc_usbfs.c:343
}
    1478:	4501                	li	a0,0
    147a:	8082                	ret
E:/Project/PlumBL/CherryUSB/port/ch32/usb_ch58x_dc_usbfs.c:340
        EPn_CLR_TX_STALL(epid);
    147c:	0bc77713          	andi	a4,a4,188
    1480:	00276713          	ori	a4,a4,2
    1484:	bfc5                	j	1474 <usbd_ep_clear_stall+0x30>

00001486 <usb_dc_init>:
usb_dc_init():
E:/Project/PlumBL/CherryUSB/port/ch32/usb_ch58x_dc_usbfs.c:367
{
    1486:	1141                	addi	sp,sp,-16
    1488:	c606                	sw	ra,12(sp)
E:/Project/PlumBL/CherryUSB/port/ch32/usb_ch58x_dc_usbfs.c:368
    usb_dc_cfg.ep_in[0].ep_ram_addr = ep0_data_buff;
    148a:	20001797          	auipc	a5,0x20001
    148e:	2f278793          	addi	a5,a5,754 # 2000277c <usb_dc_cfg>
E:/Project/PlumBL/CherryUSB/port/ch32/usb_ch58x_dc_usbfs.c:371
    usb_dc_cfg.ep_in[1].ep_ram_addr = ep1_data_buff + 64;
    1492:	20001697          	auipc	a3,0x20001
    1496:	1aa68693          	addi	a3,a3,426 # 2000263c <ep1_data_buff+0x40>
E:/Project/PlumBL/CherryUSB/port/ch32/usb_ch58x_dc_usbfs.c:377
    usb_dc_cfg.ep_in[3].ep_ram_addr = ep3_data_buff + 64;
    149a:	20001517          	auipc	a0,0x20001
    149e:	2a250513          	addi	a0,a0,674 # 2000273c <ep3_data_buff+0x40>
E:/Project/PlumBL/CherryUSB/port/ch32/usb_ch58x_dc_usbfs.c:371
    usb_dc_cfg.ep_in[1].ep_ram_addr = ep1_data_buff + 64;
    14a2:	d394                	sw	a3,32(a5)
E:/Project/PlumBL/CherryUSB/port/ch32/usb_ch58x_dc_usbfs.c:377
    usb_dc_cfg.ep_in[3].ep_ram_addr = ep3_data_buff + 64;
    14a4:	cba8                	sw	a0,80(a5)
E:/Project/PlumBL/CherryUSB/port/ch32/usb_ch58x_dc_usbfs.c:374
    usb_dc_cfg.ep_in[2].ep_ram_addr = ep2_data_buff + 64;
    14a6:	20001697          	auipc	a3,0x20001
    14aa:	21668693          	addi	a3,a3,534 # 200026bc <ep2_data_buff+0x40>
E:/Project/PlumBL/CherryUSB/port/ch32/usb_ch58x_dc_usbfs.c:380
    usb_dc_cfg.ep_in[4].ep_ram_addr = ep0_data_buff + 64 + EP4_OUT_MPS;
    14ae:	20001517          	auipc	a0,0x20001
    14b2:	10e50513          	addi	a0,a0,270 # 200025bc <ep0_data_buff+0x80>
E:/Project/PlumBL/CherryUSB/port/ch32/usb_ch58x_dc_usbfs.c:374
    usb_dc_cfg.ep_in[2].ep_ram_addr = ep2_data_buff + 64;
    14b6:	df94                	sw	a3,56(a5)
E:/Project/PlumBL/CherryUSB/port/ch32/usb_ch58x_dc_usbfs.c:380
    usb_dc_cfg.ep_in[4].ep_ram_addr = ep0_data_buff + 64 + EP4_OUT_MPS;
    14b8:	d7a8                	sw	a0,104(a5)
E:/Project/PlumBL/CherryUSB/port/ch32/usb_ch58x_dc_usbfs.c:368
    usb_dc_cfg.ep_in[0].ep_ram_addr = ep0_data_buff;
    14ba:	20001717          	auipc	a4,0x20001
    14be:	08270713          	addi	a4,a4,130 # 2000253c <ep0_data_buff>
E:/Project/PlumBL/CherryUSB/port/ch32/usb_ch58x_dc_usbfs.c:371
    usb_dc_cfg.ep_in[1].ep_ram_addr = ep1_data_buff + 64;
    14c2:	20001597          	auipc	a1,0x20001
    14c6:	13a58593          	addi	a1,a1,314 # 200025fc <ep1_data_buff>
E:/Project/PlumBL/CherryUSB/port/ch32/usb_ch58x_dc_usbfs.c:374
    usb_dc_cfg.ep_in[2].ep_ram_addr = ep2_data_buff + 64;
    14ca:	20001617          	auipc	a2,0x20001
    14ce:	1b260613          	addi	a2,a2,434 # 2000267c <ep2_data_buff>
E:/Project/PlumBL/CherryUSB/port/ch32/usb_ch58x_dc_usbfs.c:377
    usb_dc_cfg.ep_in[3].ep_ram_addr = ep3_data_buff + 64;
    14d2:	20001697          	auipc	a3,0x20001
    14d6:	22a68693          	addi	a3,a3,554 # 200026fc <ep3_data_buff>
E:/Project/PlumBL/CherryUSB/port/ch32/usb_ch58x_dc_usbfs.c:381
    usb_dc_cfg.ep_out[4].ep_ram_addr = ep0_data_buff + 64;
    14da:	20001517          	auipc	a0,0x20001
    14de:	0a250513          	addi	a0,a0,162 # 2000257c <ep0_data_buff+0x40>
E:/Project/PlumBL/CherryUSB/port/ch32/usb_ch58x_dc_usbfs.c:368
    usb_dc_cfg.ep_in[0].ep_ram_addr = ep0_data_buff;
    14e2:	c798                	sw	a4,8(a5)
E:/Project/PlumBL/CherryUSB/port/ch32/usb_ch58x_dc_usbfs.c:369
    usb_dc_cfg.ep_out[0].ep_ram_addr = ep0_data_buff;
    14e4:	08e7a023          	sw	a4,128(a5)
E:/Project/PlumBL/CherryUSB/port/ch32/usb_ch58x_dc_usbfs.c:372
    usb_dc_cfg.ep_out[1].ep_ram_addr = ep1_data_buff;
    14e8:	08b7ac23          	sw	a1,152(a5)
E:/Project/PlumBL/CherryUSB/port/ch32/usb_ch58x_dc_usbfs.c:375
    usb_dc_cfg.ep_out[2].ep_ram_addr = ep2_data_buff;
    14ec:	0ac7a823          	sw	a2,176(a5)
E:/Project/PlumBL/CherryUSB/port/ch32/usb_ch58x_dc_usbfs.c:378
    usb_dc_cfg.ep_out[3].ep_ram_addr = ep3_data_buff;
    14f0:	0cd7a423          	sw	a3,200(a5)
E:/Project/PlumBL/CherryUSB/port/ch32/usb_ch58x_dc_usbfs.c:381
    usb_dc_cfg.ep_out[4].ep_ram_addr = ep0_data_buff + 64;
    14f4:	0ea7a023          	sw	a0,224(a5)
E:/Project/PlumBL/CherryUSB/port/ch32/usb_ch58x_dc_usbfs.c:393
    CH58x_USBFS_DEV->USB_CTRL = 0x00;
    14f8:	400087b7          	lui	a5,0x40008
    14fc:	00078023          	sb	zero,0(a5) # 40008000 <_eusrstack+0x20000004>
E:/Project/PlumBL/CherryUSB/port/ch32/usb_ch58x_dc_usbfs.c:394
    CH58x_USBFS_DEV->UEP4_1_MOD = RB_UEP4_RX_EN | RB_UEP4_TX_EN | RB_UEP1_RX_EN | RB_UEP1_TX_EN; /*!< EP4 OUT+IN   EP1 OUT+IN */
    1500:	fcc00513          	li	a0,-52
    1504:	00a78623          	sb	a0,12(a5)
E:/Project/PlumBL/CherryUSB/port/ch32/usb_ch58x_dc_usbfs.c:399
    CH58x_USBFS_DEV->UEP0_DMA = (uint16_t)(uint32_t)ep0_data_buff;
    1508:	0742                	slli	a4,a4,0x10
E:/Project/PlumBL/CherryUSB/port/ch32/usb_ch58x_dc_usbfs.c:395
    CH58x_USBFS_DEV->UEP2_3_MOD = RB_UEP2_RX_EN | RB_UEP2_TX_EN | RB_UEP3_RX_EN | RB_UEP3_TX_EN; /*!< EP2 OUT+IN   EP3 OUT+IN */
    150a:	00a786a3          	sb	a0,13(a5)
E:/Project/PlumBL/CherryUSB/port/ch32/usb_ch58x_dc_usbfs.c:399
    CH58x_USBFS_DEV->UEP0_DMA = (uint16_t)(uint32_t)ep0_data_buff;
    150e:	8341                	srli	a4,a4,0x10
E:/Project/PlumBL/CherryUSB/port/ch32/usb_ch58x_dc_usbfs.c:400
    CH58x_USBFS_DEV->UEP1_DMA = (uint16_t)(uint32_t)ep1_data_buff;
    1510:	05c2                	slli	a1,a1,0x10
E:/Project/PlumBL/CherryUSB/port/ch32/usb_ch58x_dc_usbfs.c:399
    CH58x_USBFS_DEV->UEP0_DMA = (uint16_t)(uint32_t)ep0_data_buff;
    1512:	00e79823          	sh	a4,16(a5)
E:/Project/PlumBL/CherryUSB/port/ch32/usb_ch58x_dc_usbfs.c:400
    CH58x_USBFS_DEV->UEP1_DMA = (uint16_t)(uint32_t)ep1_data_buff;
    1516:	81c1                	srli	a1,a1,0x10
E:/Project/PlumBL/CherryUSB/port/ch32/usb_ch58x_dc_usbfs.c:401
    CH58x_USBFS_DEV->UEP2_DMA = (uint16_t)(uint32_t)ep2_data_buff;
    1518:	0642                	slli	a2,a2,0x10
E:/Project/PlumBL/CherryUSB/port/ch32/usb_ch58x_dc_usbfs.c:400
    CH58x_USBFS_DEV->UEP1_DMA = (uint16_t)(uint32_t)ep1_data_buff;
    151a:	00b79a23          	sh	a1,20(a5)
E:/Project/PlumBL/CherryUSB/port/ch32/usb_ch58x_dc_usbfs.c:401
    CH58x_USBFS_DEV->UEP2_DMA = (uint16_t)(uint32_t)ep2_data_buff;
    151e:	8241                	srli	a2,a2,0x10
E:/Project/PlumBL/CherryUSB/port/ch32/usb_ch58x_dc_usbfs.c:402
    CH58x_USBFS_DEV->UEP3_DMA = (uint16_t)(uint32_t)ep3_data_buff;
    1520:	06c2                	slli	a3,a3,0x10
E:/Project/PlumBL/CherryUSB/port/ch32/usb_ch58x_dc_usbfs.c:401
    CH58x_USBFS_DEV->UEP2_DMA = (uint16_t)(uint32_t)ep2_data_buff;
    1522:	00c79c23          	sh	a2,24(a5)
E:/Project/PlumBL/CherryUSB/port/ch32/usb_ch58x_dc_usbfs.c:402
    CH58x_USBFS_DEV->UEP3_DMA = (uint16_t)(uint32_t)ep3_data_buff;
    1526:	82c1                	srli	a3,a3,0x10
    1528:	00d79e23          	sh	a3,28(a5)
E:/Project/PlumBL/CherryUSB/port/ch32/usb_ch58x_dc_usbfs.c:408
    CH58x_USBFS_DEV->UEP0_CTRL = UEP_R_RES_NAK | UEP_T_RES_NAK;
    152c:	46a9                	li	a3,10
    152e:	02d78123          	sb	a3,34(a5)
E:/Project/PlumBL/CherryUSB/port/ch32/usb_ch58x_dc_usbfs.c:409
    CH58x_USBFS_DEV->UEP1_CTRL = UEP_R_RES_NAK | UEP_T_RES_NAK | RB_UEP_AUTO_TOG;
    1532:	4769                	li	a4,26
    1534:	02e78323          	sb	a4,38(a5)
E:/Project/PlumBL/CherryUSB/port/ch32/usb_ch58x_dc_usbfs.c:410
    CH58x_USBFS_DEV->UEP2_CTRL = UEP_R_RES_NAK | UEP_T_RES_NAK | RB_UEP_AUTO_TOG;
    1538:	02e78523          	sb	a4,42(a5)
E:/Project/PlumBL/CherryUSB/port/ch32/usb_ch58x_dc_usbfs.c:411
    CH58x_USBFS_DEV->UEP3_CTRL = UEP_R_RES_NAK | UEP_T_RES_NAK | RB_UEP_AUTO_TOG;
    153c:	02e78723          	sb	a4,46(a5)
E:/Project/PlumBL/CherryUSB/port/ch32/usb_ch58x_dc_usbfs.c:412
    CH58x_USBFS_DEV->UEP4_CTRL = UEP_R_RES_NAK | UEP_T_RES_NAK;
    1540:	02d78923          	sb	a3,50(a5)
E:/Project/PlumBL/CherryUSB/port/ch32/usb_ch58x_dc_usbfs.c:418
    CH58x_USBFS_DEV->USB_DEV_AD = 0x00;
    1544:	000781a3          	sb	zero,3(a5)
E:/Project/PlumBL/CherryUSB/port/ch32/usb_ch58x_dc_usbfs.c:421
    CH58x_USBFS_DEV->USB_CTRL = RB_UC_DEV_PU_EN | RB_UC_INT_BUSY | RB_UC_DMA_EN;
    1548:	02900713          	li	a4,41
    154c:	00e78023          	sb	a4,0(a5)
E:/Project/PlumBL/CherryUSB/port/ch32/usb_ch58x_dc_usbfs.c:424
        R16_PIN_ANALOG_IE |= RB_PIN_USB_IE | RB_PIN_USB_DP_PU;
    1550:	400016b7          	lui	a3,0x40001
    1554:	01a6d703          	lhu	a4,26(a3) # 4000101a <_eusrstack+0x1fff901e>
    1558:	0c076713          	ori	a4,a4,192
    155c:	00e69d23          	sh	a4,26(a3)
E:/Project/PlumBL/CherryUSB/port/ch32/usb_ch58x_dc_usbfs.c:430
    CH58x_USBFS_DEV->USB_INT_FG = 0xff;                        /*!< Clear interrupt flag */
    1560:	577d                	li	a4,-1
    1562:	00e78323          	sb	a4,6(a5)
E:/Project/PlumBL/CherryUSB/port/ch32/usb_ch58x_dc_usbfs.c:431
    CH58x_USBFS_DEV->UDEV_CTRL = RB_UD_PD_DIS | RB_UD_PORT_EN; /*!< Allow USB port */
    1566:	f8100713          	li	a4,-127
    156a:	00e780a3          	sb	a4,1(a5)
E:/Project/PlumBL/CherryUSB/port/ch32/usb_ch58x_dc_usbfs.c:432
    CH58x_USBFS_DEV->USB_INT_EN = RB_UIE_SUSPEND | RB_UIE_BUS_RST | RB_UIE_TRANSFER;
    156e:	471d                	li	a4,7
    1570:	00e78123          	sb	a4,2(a5)
E:/Project/PlumBL/CherryUSB/port/ch32/usb_ch58x_dc_usbfs.c:434
    usb_dc_low_level_init();
    1574:	3ee5                	jal	116c <usb_dc_low_level_init>
E:/Project/PlumBL/CherryUSB/port/ch32/usb_ch58x_dc_usbfs.c:436
}
    1576:	40b2                	lw	ra,12(sp)
    1578:	4501                	li	a0,0
    157a:	0141                	addi	sp,sp,16
    157c:	8082                	ret

0000157e <usbd_class_event_notify_handler>:
usbd_class_event_notify_handler():
E:/Project/PlumBL/CherryUSB/core/usbd_core.c:936

    return true;
}

static void usbd_class_event_notify_handler(uint8_t event, void *arg)
{
    157e:	1141                	addi	sp,sp,-16
E:/Project/PlumBL/CherryUSB/core/usbd_core.c:938
    usb_slist_t *i;
    usb_slist_for_each(i, &usbd_intf_head)
    1580:	20000797          	auipc	a5,0x20000
    1584:	77478793          	addi	a5,a5,1908 # 20001cf4 <usbd_intf_head>
E:/Project/PlumBL/CherryUSB/core/usbd_core.c:936
{
    1588:	c422                	sw	s0,8(sp)
E:/Project/PlumBL/CherryUSB/core/usbd_core.c:938
    usb_slist_for_each(i, &usbd_intf_head)
    158a:	4380                	lw	s0,0(a5)
E:/Project/PlumBL/CherryUSB/core/usbd_core.c:936
{
    158c:	c226                	sw	s1,4(sp)
    158e:	c04a                	sw	s2,0(sp)
    1590:	c606                	sw	ra,12(sp)
    1592:	84aa                	mv	s1,a0
    1594:	892e                	mv	s2,a1
E:/Project/PlumBL/CherryUSB/core/usbd_core.c:938 (discriminator 1)
    usb_slist_for_each(i, &usbd_intf_head)
    1596:	e419                	bnez	s0,15a4 <usbd_class_event_notify_handler+0x26>
E:/Project/PlumBL/CherryUSB/core/usbd_core.c:946

        if (intf->notify_handler) {
            intf->notify_handler(event, arg);
        }
    }
}
    1598:	40b2                	lw	ra,12(sp)
    159a:	4422                	lw	s0,8(sp)
    159c:	4492                	lw	s1,4(sp)
    159e:	4902                	lw	s2,0(sp)
    15a0:	0141                	addi	sp,sp,16
    15a2:	8082                	ret
E:/Project/PlumBL/CherryUSB/core/usbd_core.c:942
        if (intf->notify_handler) {
    15a4:	481c                	lw	a5,16(s0)
    15a6:	c781                	beqz	a5,15ae <usbd_class_event_notify_handler+0x30>
E:/Project/PlumBL/CherryUSB/core/usbd_core.c:943
            intf->notify_handler(event, arg);
    15a8:	85ca                	mv	a1,s2
    15aa:	8526                	mv	a0,s1
    15ac:	9782                	jalr	a5
E:/Project/PlumBL/CherryUSB/core/usbd_core.c:938 (discriminator 2)
    usb_slist_for_each(i, &usbd_intf_head)
    15ae:	4000                	lw	s0,0(s0)
    15b0:	b7dd                	j	1596 <usbd_class_event_notify_handler+0x18>

000015b2 <usbd_set_endpoint>:
usbd_set_endpoint():
E:/Project/PlumBL/CherryUSB/core/usbd_core.c:113
{
    15b2:	1101                	addi	sp,sp,-32
    15b4:	ce06                	sw	ra,28(sp)
E:/Project/PlumBL/CherryUSB/core/usbd_core.c:116
    ep_cfg.ep_addr = ep_desc->bEndpointAddress;
    15b6:	00254783          	lbu	a5,2(a0)
    15ba:	00f10423          	sb	a5,8(sp)
E:/Project/PlumBL/CherryUSB/core/usbd_core.c:117
    ep_cfg.ep_mps = ep_desc->wMaxPacketSize & USB_MAXPACKETSIZE_MASK;
    15be:	00554783          	lbu	a5,5(a0)
    15c2:	00454703          	lbu	a4,4(a0)
    15c6:	07a2                	slli	a5,a5,0x8
    15c8:	8fd9                	or	a5,a5,a4
    15ca:	7ff7f793          	andi	a5,a5,2047
    15ce:	00f11523          	sh	a5,10(sp)
E:/Project/PlumBL/CherryUSB/core/usbd_core.c:118
    ep_cfg.ep_type = ep_desc->bmAttributes & USB_ENDPOINT_TYPE_MASK;
    15d2:	00354783          	lbu	a5,3(a0)
E:/Project/PlumBL/CherryUSB/core/usbd_core.c:120
    USB_LOG_INFO("Open ep:0x%02x type:%u mps:%u\r\n",
    15d6:	00003517          	auipc	a0,0x3
    15da:	92a50513          	addi	a0,a0,-1750 # 3f00 <msc_flash_descriptor+0x15c>
E:/Project/PlumBL/CherryUSB/core/usbd_core.c:118
    ep_cfg.ep_type = ep_desc->bmAttributes & USB_ENDPOINT_TYPE_MASK;
    15de:	8b8d                	andi	a5,a5,3
    15e0:	00f104a3          	sb	a5,9(sp)
E:/Project/PlumBL/CherryUSB/core/usbd_core.c:120
    USB_LOG_INFO("Open ep:0x%02x type:%u mps:%u\r\n",
    15e4:	3a6010ef          	jal	ra,298a <iprintf>
    15e8:	00a15683          	lhu	a3,10(sp)
    15ec:	00914603          	lbu	a2,9(sp)
    15f0:	00814583          	lbu	a1,8(sp)
    15f4:	00003517          	auipc	a0,0x3
    15f8:	91c50513          	addi	a0,a0,-1764 # 3f10 <msc_flash_descriptor+0x16c>
    15fc:	38e010ef          	jal	ra,298a <iprintf>
    1600:	00003517          	auipc	a0,0x3
    1604:	85450513          	addi	a0,a0,-1964 # 3e54 <msc_flash_descriptor+0xb0>
    1608:	382010ef          	jal	ra,298a <iprintf>
E:/Project/PlumBL/CherryUSB/core/usbd_core.c:123
    return usbd_ep_open(&ep_cfg) == 0 ? true : false;
    160c:	0028                	addi	a0,sp,8
    160e:	3ee5                	jal	1206 <usbd_ep_open>
E:/Project/PlumBL/CherryUSB/core/usbd_core.c:124
}
    1610:	40f2                	lw	ra,28(sp)
    1612:	00153513          	seqz	a0,a0
    1616:	6105                	addi	sp,sp,32
    1618:	8082                	ret

0000161a <usbd_event_ep0_in_complete_handler>:
usbd_event_ep0_in_complete_handler():
E:/Project/PlumBL/CherryUSB/core/usbd_core.c:1054

void usbd_event_ep0_in_complete_handler(uint8_t ep, uint32_t nbytes)
{
    struct usb_setup_packet *setup = &usbd_core_cfg.setup;

    usbd_core_cfg.ep0_data_buf += nbytes;
    161a:	80818713          	addi	a4,gp,-2040 # 20000b78 <_edata>
    161e:	471c                	lw	a5,8(a4)
E:/Project/PlumBL/CherryUSB/core/usbd_core.c:1055
    usbd_core_cfg.ep0_data_buf_residue -= nbytes;
    1620:	4750                	lw	a2,12(a4)
E:/Project/PlumBL/CherryUSB/core/usbd_core.c:1054
    usbd_core_cfg.ep0_data_buf += nbytes;
    1622:	97ae                	add	a5,a5,a1
E:/Project/PlumBL/CherryUSB/core/usbd_core.c:1055
    usbd_core_cfg.ep0_data_buf_residue -= nbytes;
    1624:	8e0d                	sub	a2,a2,a1
E:/Project/PlumBL/CherryUSB/core/usbd_core.c:1054
    usbd_core_cfg.ep0_data_buf += nbytes;
    1626:	80f1a823          	sw	a5,-2032(gp) # 20000b80 <_edata+0x8>
E:/Project/PlumBL/CherryUSB/core/usbd_core.c:1055
    usbd_core_cfg.ep0_data_buf_residue -= nbytes;
    162a:	80c1aa23          	sw	a2,-2028(gp) # 20000b84 <_edata+0xc>
E:/Project/PlumBL/CherryUSB/core/usbd_core.c:1061

    USB_LOG_DBG("EP0 send %d bytes, %d remained\r\n", nbytes, usbd_core_cfg.ep0_data_buf_residue);

    if (usbd_core_cfg.ep0_data_buf_residue != 0) {
        /* Start sending the remain data */
        usbd_ep_start_write(USB_CONTROL_IN_EP0, usbd_core_cfg.ep0_data_buf, usbd_core_cfg.ep0_data_buf_residue);
    162e:	85be                	mv	a1,a5
E:/Project/PlumBL/CherryUSB/core/usbd_core.c:1059
    if (usbd_core_cfg.ep0_data_buf_residue != 0) {
    1630:	ea01                	bnez	a2,1640 <usbd_event_ep0_in_complete_handler+0x26>
E:/Project/PlumBL/CherryUSB/core/usbd_core.c:1063
    } else {
        if (usbd_core_cfg.zlp_flag == true) {
    1632:	81c1c783          	lbu	a5,-2020(gp) # 20000b8c <_edata+0x14>
    1636:	cb81                	beqz	a5,1646 <usbd_event_ep0_in_complete_handler+0x2c>
E:/Project/PlumBL/CherryUSB/core/usbd_core.c:1064
            usbd_core_cfg.zlp_flag = false;
    1638:	80018e23          	sb	zero,-2020(gp) # 20000b8c <_edata+0x14>
E:/Project/PlumBL/CherryUSB/core/usbd_core.c:1067
            /* Send zlp to host */
            USB_LOG_DBG("EP0 Send zlp\r\n");
            usbd_ep_start_write(USB_CONTROL_IN_EP0, NULL, 0);
    163c:	4601                	li	a2,0
    163e:	4581                	li	a1,0
    1640:	08000513          	li	a0,128
    1644:	b141                	j	12c4 <usbd_ep_start_write>
E:/Project/PlumBL/CherryUSB/core/usbd_core.c:1074
            /* Satisfying three conditions will jump here.
                * 1. send status completely
                * 2. send zlp completely
                * 3. send last data completely.
                */
            if (setup->wLength && ((setup->bmRequestType & USB_REQUEST_DIR_MASK) == USB_REQUEST_DIR_IN)) {
    1646:	80e1d783          	lhu	a5,-2034(gp) # 20000b7e <_edata+0x6>
    164a:	cb89                	beqz	a5,165c <usbd_event_ep0_in_complete_handler+0x42>
E:/Project/PlumBL/CherryUSB/core/usbd_core.c:1074 (discriminator 1)
    164c:	00070783          	lb	a5,0(a4)
    1650:	0007d663          	bgez	a5,165c <usbd_event_ep0_in_complete_handler+0x42>
E:/Project/PlumBL/CherryUSB/core/usbd_core.c:1076
                /* if all data has sent completely, start reading out status */
                usbd_ep_start_read(USB_CONTROL_OUT_EP0, NULL, 0);
    1654:	4601                	li	a2,0
    1656:	4581                	li	a1,0
    1658:	4501                	li	a0,0
    165a:	bb05                	j	138a <usbd_ep_start_read>
E:/Project/PlumBL/CherryUSB/core/usbd_core.c:1080
            }
        }
    }
}
    165c:	8082                	ret

0000165e <usbd_print_setup.constprop.12>:
usbd_print_setup():
E:/Project/PlumBL/CherryUSB/core/usbd_core.c:86
static void usbd_print_setup(struct usb_setup_packet *setup)
    165e:	1141                	addi	sp,sp,-16
E:/Project/PlumBL/CherryUSB/core/usbd_core.c:88
    USB_LOG_INFO("Setup: "
    1660:	00003517          	auipc	a0,0x3
    1664:	8a050513          	addi	a0,a0,-1888 # 3f00 <msc_flash_descriptor+0x15c>
E:/Project/PlumBL/CherryUSB/core/usbd_core.c:86
static void usbd_print_setup(struct usb_setup_packet *setup)
    1668:	c606                	sw	ra,12(sp)
E:/Project/PlumBL/CherryUSB/core/usbd_core.c:88
    USB_LOG_INFO("Setup: "
    166a:	320010ef          	jal	ra,298a <iprintf>
    166e:	80818593          	addi	a1,gp,-2040 # 20000b78 <_edata>
    1672:	0065d783          	lhu	a5,6(a1)
    1676:	0045d703          	lhu	a4,4(a1)
    167a:	0025d683          	lhu	a3,2(a1)
    167e:	0015c603          	lbu	a2,1(a1)
    1682:	0005c583          	lbu	a1,0(a1)
    1686:	00003517          	auipc	a0,0x3
    168a:	81a50513          	addi	a0,a0,-2022 # 3ea0 <msc_flash_descriptor+0xfc>
    168e:	2fc010ef          	jal	ra,298a <iprintf>
E:/Project/PlumBL/CherryUSB/core/usbd_core.c:95
}
    1692:	40b2                	lw	ra,12(sp)
E:/Project/PlumBL/CherryUSB/core/usbd_core.c:88
    USB_LOG_INFO("Setup: "
    1694:	00002517          	auipc	a0,0x2
    1698:	7c050513          	addi	a0,a0,1984 # 3e54 <msc_flash_descriptor+0xb0>
E:/Project/PlumBL/CherryUSB/core/usbd_core.c:95
}
    169c:	0141                	addi	sp,sp,16
E:/Project/PlumBL/CherryUSB/core/usbd_core.c:88
    USB_LOG_INFO("Setup: "
    169e:	2ec0106f          	j	298a <iprintf>

000016a2 <usbd_setup_request_handler.constprop.3>:
usbd_setup_request_handler():
E:/Project/PlumBL/CherryUSB/core/usbd_core.c:897
static bool usbd_setup_request_handler(struct usb_setup_packet *setup, uint8_t **data, uint32_t *len)
    16a2:	715d                	addi	sp,sp,-80
E:/Project/PlumBL/CherryUSB/core/usbd_core.c:899
    switch (setup->bmRequestType & USB_REQUEST_TYPE_MASK) {
    16a4:	8081c703          	lbu	a4,-2040(gp) # 20000b78 <_edata>
E:/Project/PlumBL/CherryUSB/core/usbd_core.c:897
static bool usbd_setup_request_handler(struct usb_setup_packet *setup, uint8_t **data, uint32_t *len)
    16a8:	c686                	sw	ra,76(sp)
    16aa:	c4a2                	sw	s0,72(sp)
    16ac:	c2a6                	sw	s1,68(sp)
    16ae:	c0ca                	sw	s2,64(sp)
    16b0:	de4e                	sw	s3,60(sp)
    16b2:	dc52                	sw	s4,56(sp)
    16b4:	da56                	sw	s5,52(sp)
    16b6:	d85a                	sw	s6,48(sp)
    16b8:	d65e                	sw	s7,44(sp)
    16ba:	d462                	sw	s8,40(sp)
    16bc:	d266                	sw	s9,36(sp)
    16be:	d06a                	sw	s10,32(sp)
    16c0:	ce6e                	sw	s11,28(sp)
    16c2:	06077793          	andi	a5,a4,96
    16c6:	02000613          	li	a2,32
E:/Project/PlumBL/CherryUSB/core/usbd_core.c:899
    switch (setup->bmRequestType & USB_REQUEST_TYPE_MASK) {
    16ca:	80818693          	addi	a3,gp,-2040 # 20000b78 <_edata>
    16ce:	40c78263          	beq	a5,a2,1ad2 <usbd_setup_request_handler.constprop.3+0x430>
    16d2:	04000613          	li	a2,64
    16d6:	48c78363          	beq	a5,a2,1b5c <usbd_setup_request_handler.constprop.3+0x4ba>
E:/Project/PlumBL/CherryUSB/core/usbd_core.c:929
            return false;
    16da:	4401                	li	s0,0
    16dc:	1a079d63          	bnez	a5,1896 <usbd_setup_request_handler.constprop.3+0x1f4>
usbd_standard_request_handler():
E:/Project/PlumBL/CherryUSB/core/usbd_core.c:713
    switch (setup->bmRequestType & USB_REQUEST_RECIPIENT_MASK) {
    16e0:	8b0d                	andi	a4,a4,3
    16e2:	4605                	li	a2,1
    16e4:	8091c783          	lbu	a5,-2039(gp) # 20000b79 <_edata+0x1>
    16e8:	20c70663          	beq	a4,a2,18f4 <usbd_setup_request_handler.constprop.3+0x252>
    16ec:	c329                	beqz	a4,172e <usbd_setup_request_handler.constprop.3+0x8c>
    16ee:	4589                	li	a1,2
    16f0:	32b70663          	beq	a4,a1,1a1c <usbd_setup_request_handler.constprop.3+0x37a>
usbd_setup_request_handler():
E:/Project/PlumBL/CherryUSB/core/usbd_core.c:903
                if ((setup->bRequest == 0x06) && (setup->wValue = 0x0600)) {
    16f4:	8091c703          	lbu	a4,-2039(gp) # 20000b79 <_edata+0x1>
    16f8:	4799                	li	a5,6
    16fa:	3af71863          	bne	a4,a5,1aaa <usbd_setup_request_handler.constprop.3+0x408>
    16fe:	60000793          	li	a5,1536
E:/Project/PlumBL/CherryUSB/core/usbd_core.c:904
                    USB_LOG_WRN("Ignore DQD in fs\r\n"); /* Device Qualifier Descriptor */
    1702:	00003517          	auipc	a0,0x3
    1706:	8d250513          	addi	a0,a0,-1838 # 3fd4 <msc_flash_descriptor+0x230>
E:/Project/PlumBL/CherryUSB/core/usbd_core.c:903
                if ((setup->bRequest == 0x06) && (setup->wValue = 0x0600)) {
    170a:	80f19523          	sh	a5,-2038(gp) # 20000b7a <_edata+0x2>
E:/Project/PlumBL/CherryUSB/core/usbd_core.c:904
                    USB_LOG_WRN("Ignore DQD in fs\r\n"); /* Device Qualifier Descriptor */
    170e:	27c010ef          	jal	ra,298a <iprintf>
    1712:	00003517          	auipc	a0,0x3
    1716:	8d250513          	addi	a0,a0,-1838 # 3fe4 <msc_flash_descriptor+0x240>
    171a:	38e010ef          	jal	ra,2aa8 <puts>
    171e:	00002517          	auipc	a0,0x2
    1722:	73650513          	addi	a0,a0,1846 # 3e54 <msc_flash_descriptor+0xb0>
    1726:	264010ef          	jal	ra,298a <iprintf>
E:/Project/PlumBL/CherryUSB/core/usbd_core.c:924
                return false;
    172a:	4401                	li	s0,0
    172c:	a2ad                	j	1896 <usbd_setup_request_handler.constprop.3+0x1f4>
usbd_std_device_req_handler():
E:/Project/PlumBL/CherryUSB/core/usbd_core.c:508
    switch (setup->bRequest) {
    172e:	4725                	li	a4,9
E:/Project/PlumBL/CherryUSB/core/usbd_core.c:505
    uint16_t value = setup->wValue;
    1730:	80a1d503          	lhu	a0,-2038(gp) # 20000b7a <_edata+0x2>
E:/Project/PlumBL/CherryUSB/core/usbd_core.c:508
    switch (setup->bRequest) {
    1734:	fcf760e3          	bltu	a4,a5,16f4 <usbd_setup_request_handler.constprop.3+0x52>
    1738:	00002717          	auipc	a4,0x2
    173c:	72470713          	addi	a4,a4,1828 # 3e5c <msc_flash_descriptor+0xb8>
    1740:	078a                	slli	a5,a5,0x2
    1742:	97ba                	add	a5,a5,a4
    1744:	439c                	lw	a5,0(a5)
    1746:	8836                	mv	a6,a3
    1748:	97ba                	add	a5,a5,a4
    174a:	8782                	jr	a5
E:/Project/PlumBL/CherryUSB/core/usbd_core.c:512
            (*data)[0] = 0x00;
    174c:	469c                	lw	a5,8(a3)
    174e:	00078023          	sb	zero,0(a5)
E:/Project/PlumBL/CherryUSB/core/usbd_core.c:513
            (*data)[1] = 0x00;
    1752:	469c                	lw	a5,8(a3)
usbd_std_interface_req_handler():
E:/Project/PlumBL/CherryUSB/core/usbd_core.c:598
            (*data)[1] = 0x00;
    1754:	000780a3          	sb	zero,1(a5)
E:/Project/PlumBL/CherryUSB/core/usbd_core.c:599
            *len = 2;
    1758:	4789                	li	a5,2
    175a:	a08d                	j	17bc <usbd_setup_request_handler.constprop.3+0x11a>
usbd_std_device_req_handler():
E:/Project/PlumBL/CherryUSB/core/usbd_core.c:530
            usbd_set_address(value);
    175c:	0ff57513          	andi	a0,a0,255
    1760:	3461                	jal	11e8 <usbd_set_address>
usbd_std_endpoint_req_handler():
E:/Project/PlumBL/CherryUSB/core/usbd_core.c:686
            *len = 0;
    1762:	8001ac23          	sw	zero,-2024(gp) # 20000b88 <_edata+0x10>
E:/Project/PlumBL/CherryUSB/core/usbd_core.c:687
            break;
    1766:	abb9                	j	1cc4 <usbd_setup_request_handler.constprop.3+0x622>
usbd_get_descriptor():
E:/Project/PlumBL/CherryUSB/core/usbd_core.c:282
    type = HI_BYTE(type_index);
    1768:	00855593          	srli	a1,a0,0x8
E:/Project/PlumBL/CherryUSB/core/usbd_core.c:285
    if ((type == USB_DESCRIPTOR_TYPE_STRING) && (index == USB_OSDESC_STRING_DESC_INDEX)) {
    176c:	478d                	li	a5,3
E:/Project/PlumBL/CherryUSB/core/usbd_core.c:282
    type = HI_BYTE(type_index);
    176e:	0ff5f693          	andi	a3,a1,255
E:/Project/PlumBL/CherryUSB/core/usbd_core.c:283
    index = LO_BYTE(type_index);
    1772:	0ff57413          	andi	s0,a0,255
E:/Project/PlumBL/CherryUSB/core/usbd_core.c:285
    if ((type == USB_DESCRIPTOR_TYPE_STRING) && (index == USB_OSDESC_STRING_DESC_INDEX)) {
    1776:	04f59663          	bne	a1,a5,17c2 <usbd_setup_request_handler.constprop.3+0x120>
    177a:	0ee00793          	li	a5,238
    177e:	08f41563          	bne	s0,a5,1808 <usbd_setup_request_handler.constprop.3+0x166>
E:/Project/PlumBL/CherryUSB/core/usbd_core.c:286
        USB_LOG_INFO("read MS OS 2.0 descriptor string\r\n");
    1782:	00002517          	auipc	a0,0x2
    1786:	77e50513          	addi	a0,a0,1918 # 3f00 <msc_flash_descriptor+0x15c>
    178a:	200010ef          	jal	ra,298a <iprintf>
    178e:	00002517          	auipc	a0,0x2
    1792:	7a250513          	addi	a0,a0,1954 # 3f30 <msc_flash_descriptor+0x18c>
    1796:	312010ef          	jal	ra,2aa8 <puts>
    179a:	00002517          	auipc	a0,0x2
    179e:	6ba50513          	addi	a0,a0,1722 # 3e54 <msc_flash_descriptor+0xb0>
    17a2:	1e8010ef          	jal	ra,298a <iprintf>
E:/Project/PlumBL/CherryUSB/core/usbd_core.c:288
        if (!msosv1_desc) {
    17a6:	20000797          	auipc	a5,0x20000
    17aa:	54678793          	addi	a5,a5,1350 # 20001cec <msosv1_desc>
    17ae:	439c                	lw	a5,0(a5)
    17b0:	d3b1                	beqz	a5,16f4 <usbd_setup_request_handler.constprop.3+0x52>
E:/Project/PlumBL/CherryUSB/core/usbd_core.c:292
        *data = (uint8_t *)msosv1_desc->string;
    17b2:	4398                	lw	a4,0(a5)
    17b4:	80e1a823          	sw	a4,-2032(gp) # 20000b80 <_edata+0x8>
E:/Project/PlumBL/CherryUSB/core/usbd_core.c:293
        *len = msosv1_desc->string_len;
    17b8:	0047c783          	lbu	a5,4(a5)
usbd_vendor_request_handler():
E:/Project/PlumBL/CherryUSB/core/usbd_core.c:865
                    *len = msosv2_desc->compat_id_len;
    17bc:	80f1ac23          	sw	a5,-2024(gp) # 20000b88 <_edata+0x10>
    17c0:	a311                	j	1cc4 <usbd_setup_request_handler.constprop.3+0x622>
usbd_get_descriptor():
E:/Project/PlumBL/CherryUSB/core/usbd_core.c:296
    } else if (type == USB_DESCRIPTOR_TYPE_BINARY_OBJECT_STORE) {
    17c2:	473d                	li	a4,15
    17c4:	04e59063          	bne	a1,a4,1804 <usbd_setup_request_handler.constprop.3+0x162>
E:/Project/PlumBL/CherryUSB/core/usbd_core.c:297
        USB_LOG_INFO("read BOS descriptor string\r\n");
    17c8:	00002517          	auipc	a0,0x2
    17cc:	73850513          	addi	a0,a0,1848 # 3f00 <msc_flash_descriptor+0x15c>
    17d0:	1ba010ef          	jal	ra,298a <iprintf>
    17d4:	00002517          	auipc	a0,0x2
    17d8:	78050513          	addi	a0,a0,1920 # 3f54 <msc_flash_descriptor+0x1b0>
    17dc:	2cc010ef          	jal	ra,2aa8 <puts>
    17e0:	00002517          	auipc	a0,0x2
    17e4:	67450513          	addi	a0,a0,1652 # 3e54 <msc_flash_descriptor+0xb0>
    17e8:	1a2010ef          	jal	ra,298a <iprintf>
E:/Project/PlumBL/CherryUSB/core/usbd_core.c:299
        if (!bos_desc) {
    17ec:	20000797          	auipc	a5,0x20000
    17f0:	4fc78793          	addi	a5,a5,1276 # 20001ce8 <bos_desc>
    17f4:	439c                	lw	a5,0(a5)
    17f6:	ee078fe3          	beqz	a5,16f4 <usbd_setup_request_handler.constprop.3+0x52>
E:/Project/PlumBL/CherryUSB/core/usbd_core.c:303
        *data = bos_desc->string;
    17fa:	4398                	lw	a4,0(a5)
E:/Project/PlumBL/CherryUSB/core/usbd_core.c:304
        *len = bos_desc->string_len;
    17fc:	43dc                	lw	a5,4(a5)
E:/Project/PlumBL/CherryUSB/core/usbd_core.c:303
        *data = bos_desc->string;
    17fe:	80e1a823          	sw	a4,-2032(gp) # 20000b80 <_edata+0x8>
E:/Project/PlumBL/CherryUSB/core/usbd_core.c:304
        *len = bos_desc->string_len;
    1802:	bf6d                	j	17bc <usbd_setup_request_handler.constprop.3+0x11a>
E:/Project/PlumBL/CherryUSB/core/usbd_core.c:311
    else if ((type == USB_DESCRIPTOR_TYPE_INTERFACE) || (type == USB_DESCRIPTOR_TYPE_ENDPOINT) ||
    1804:	eeb7e8e3          	bltu	a5,a1,16f4 <usbd_setup_request_handler.constprop.3+0x52>
E:/Project/PlumBL/CherryUSB/core/usbd_core.c:320
    p = (uint8_t *)usbd_core_cfg.descriptors;
    1808:	01882783          	lw	a5,24(a6)
E:/Project/PlumBL/CherryUSB/core/usbd_core.c:322
    cur_index = 0U;
    180c:	4701                	li	a4,0
E:/Project/PlumBL/CherryUSB/core/usbd_core.c:324
    while (p[DESC_bLength] != 0U) {
    180e:	0007c603          	lbu	a2,0(a5)
    1812:	e61d                	bnez	a2,1840 <usbd_setup_request_handler.constprop.3+0x19e>
E:/Project/PlumBL/CherryUSB/core/usbd_core.c:352
        USB_LOG_ERR("descriptor <type:%x,index:%x> not found!\r\n", type, index);
    1814:	00002517          	auipc	a0,0x2
    1818:	61850513          	addi	a0,a0,1560 # 3e2c <msc_flash_descriptor+0x88>
    181c:	c62e                	sw	a1,12(sp)
    181e:	16c010ef          	jal	ra,298a <iprintf>
    1822:	45b2                	lw	a1,12(sp)
    1824:	8622                	mv	a2,s0
    1826:	00003517          	auipc	a0,0x3
    182a:	87a50513          	addi	a0,a0,-1926 # 40a0 <msc_flash_descriptor+0x2fc>
    182e:	15c010ef          	jal	ra,298a <iprintf>
    1832:	00002517          	auipc	a0,0x2
    1836:	62250513          	addi	a0,a0,1570 # 3e54 <msc_flash_descriptor+0xb0>
    183a:	150010ef          	jal	ra,298a <iprintf>
    183e:	bd5d                	j	16f4 <usbd_setup_request_handler.constprop.3+0x52>
E:/Project/PlumBL/CherryUSB/core/usbd_core.c:325
        if (p[DESC_bDescriptorType] == type) {
    1840:	0017c503          	lbu	a0,1(a5)
    1844:	00d51563          	bne	a0,a3,184e <usbd_setup_request_handler.constprop.3+0x1ac>
E:/Project/PlumBL/CherryUSB/core/usbd_core.c:326
            if (cur_index == index) {
    1848:	44e40e63          	beq	s0,a4,1ca4 <usbd_setup_request_handler.constprop.3+0x602>
E:/Project/PlumBL/CherryUSB/core/usbd_core.c:331
            cur_index++;
    184c:	0705                	addi	a4,a4,1
E:/Project/PlumBL/CherryUSB/core/usbd_core.c:335
        p += p[DESC_bLength];
    184e:	97b2                	add	a5,a5,a2
    1850:	bf7d                	j	180e <usbd_setup_request_handler.constprop.3+0x16c>
usbd_std_device_req_handler():
E:/Project/PlumBL/CherryUSB/core/usbd_core.c:543
            *data = (uint8_t *)&usbd_core_cfg.configuration;
    1852:	92518793          	addi	a5,gp,-1755 # 20000c95 <_edata+0x11d>
    1856:	80f1a823          	sw	a5,-2032(gp) # 20000b80 <_edata+0x8>
E:/Project/PlumBL/CherryUSB/core/usbd_core.c:544
            *len = 1;
    185a:	4785                	li	a5,1
    185c:	b785                	j	17bc <usbd_setup_request_handler.constprop.3+0x11a>
usbd_set_configuration():
E:/Project/PlumBL/CherryUSB/core/usbd_core.c:384
    p = (uint8_t *)usbd_core_cfg.descriptors;
    185e:	0186a903          	lw	s2,24(a3)
usbd_std_device_req_handler():
E:/Project/PlumBL/CherryUSB/core/usbd_core.c:550
            if (!usbd_set_configuration(value, 0)) {
    1862:	0ff57493          	andi	s1,a0,255
usbd_set_configuration():
E:/Project/PlumBL/CherryUSB/core/usbd_core.c:375
    bool found = false;
    1866:	4401                	li	s0,0
E:/Project/PlumBL/CherryUSB/core/usbd_core.c:374
    uint8_t cur_config = 0xFF;
    1868:	0ff00993          	li	s3,255
E:/Project/PlumBL/CherryUSB/core/usbd_core.c:373
    uint8_t cur_alt_setting = 0xFF;
    186c:	0ff00a13          	li	s4,255
    1870:	4a91                	li	s5,4
    1872:	4b15                	li	s6,5
    1874:	4b89                	li	s7,2
E:/Project/PlumBL/CherryUSB/core/usbd_core.c:387
    while (p[DESC_bLength] != 0U) {
    1876:	00094783          	lbu	a5,0(s2)
    187a:	ef95                	bnez	a5,18b6 <usbd_setup_request_handler.constprop.3+0x214>
usbd_std_device_req_handler():
E:/Project/PlumBL/CherryUSB/core/usbd_core.c:550
            if (!usbd_set_configuration(value, 0)) {
    187c:	c82d                	beqz	s0,18ee <usbd_setup_request_handler.constprop.3+0x24c>
E:/Project/PlumBL/CherryUSB/core/usbd_core.c:553
                usbd_core_cfg.configuration = value;
    187e:	929182a3          	sb	s1,-1755(gp) # 20000c95 <_edata+0x11d>
E:/Project/PlumBL/CherryUSB/core/usbd_core.c:554
                usbd_core_cfg.configured = true;
    1882:	4785                	li	a5,1
E:/Project/PlumBL/CherryUSB/core/usbd_core.c:555
                usbd_class_event_notify_handler(USBD_EVENT_CONFIGURED, NULL);
    1884:	4581                	li	a1,0
    1886:	451d                	li	a0,7
E:/Project/PlumBL/CherryUSB/core/usbd_core.c:554
                usbd_core_cfg.configured = true;
    1888:	92f18223          	sb	a5,-1756(gp) # 20000c94 <_edata+0x11c>
E:/Project/PlumBL/CherryUSB/core/usbd_core.c:555
                usbd_class_event_notify_handler(USBD_EVENT_CONFIGURED, NULL);
    188c:	39cd                	jal	157e <usbd_class_event_notify_handler>
E:/Project/PlumBL/CherryUSB/core/usbd_core.c:556
                usbd_configure_done_callback();
    188e:	f96ff0ef          	jal	ra,1024 <usbd_configure_done_callback>
E:/Project/PlumBL/CherryUSB/core/usbd_core.c:558
            *len = 0;
    1892:	8001ac23          	sw	zero,-2024(gp) # 20000b88 <_edata+0x10>
usbd_setup_request_handler():
E:/Project/PlumBL/CherryUSB/core/usbd_core.c:933
}
    1896:	8522                	mv	a0,s0
    1898:	40b6                	lw	ra,76(sp)
    189a:	4426                	lw	s0,72(sp)
    189c:	4496                	lw	s1,68(sp)
    189e:	4906                	lw	s2,64(sp)
    18a0:	59f2                	lw	s3,60(sp)
    18a2:	5a62                	lw	s4,56(sp)
    18a4:	5ad2                	lw	s5,52(sp)
    18a6:	5b42                	lw	s6,48(sp)
    18a8:	5bb2                	lw	s7,44(sp)
    18aa:	5c22                	lw	s8,40(sp)
    18ac:	5c92                	lw	s9,36(sp)
    18ae:	5d02                	lw	s10,32(sp)
    18b0:	4df2                	lw	s11,28(sp)
    18b2:	6161                	addi	sp,sp,80
    18b4:	8082                	ret
usbd_set_configuration():
E:/Project/PlumBL/CherryUSB/core/usbd_core.c:388
        switch (p[DESC_bDescriptorType]) {
    18b6:	00194783          	lbu	a5,1(s2)
    18ba:	01578f63          	beq	a5,s5,18d8 <usbd_setup_request_handler.constprop.3+0x236>
    18be:	03678063          	beq	a5,s6,18de <usbd_setup_request_handler.constprop.3+0x23c>
    18c2:	01779763          	bne	a5,s7,18d0 <usbd_setup_request_handler.constprop.3+0x22e>
E:/Project/PlumBL/CherryUSB/core/usbd_core.c:391
                cur_config = p[CONF_DESC_bConfigurationValue];
    18c6:	00594983          	lbu	s3,5(s2)
E:/Project/PlumBL/CherryUSB/core/usbd_core.c:393
                if (cur_config == config_index) {
    18ca:	01349363          	bne	s1,s3,18d0 <usbd_setup_request_handler.constprop.3+0x22e>
E:/Project/PlumBL/CherryUSB/core/usbd_core.c:394
                    found = true;
    18ce:	4405                	li	s0,1
E:/Project/PlumBL/CherryUSB/core/usbd_core.c:419
        p += p[DESC_bLength];
    18d0:	00094783          	lbu	a5,0(s2)
    18d4:	993e                	add	s2,s2,a5
    18d6:	b745                	j	1876 <usbd_setup_request_handler.constprop.3+0x1d4>
E:/Project/PlumBL/CherryUSB/core/usbd_core.c:401
                cur_alt_setting =
    18d8:	00394a03          	lbu	s4,3(s2)
E:/Project/PlumBL/CherryUSB/core/usbd_core.c:403
                break;
    18dc:	bfd5                	j	18d0 <usbd_setup_request_handler.constprop.3+0x22e>
E:/Project/PlumBL/CherryUSB/core/usbd_core.c:406
                if ((cur_config != config_index) ||
    18de:	ff3499e3          	bne	s1,s3,18d0 <usbd_setup_request_handler.constprop.3+0x22e>
    18e2:	fe0a17e3          	bnez	s4,18d0 <usbd_setup_request_handler.constprop.3+0x22e>
E:/Project/PlumBL/CherryUSB/core/usbd_core.c:411
                found = usbd_set_endpoint((struct usb_endpoint_descriptor *)p);
    18e6:	854a                	mv	a0,s2
    18e8:	31e9                	jal	15b2 <usbd_set_endpoint>
    18ea:	842a                	mv	s0,a0
E:/Project/PlumBL/CherryUSB/core/usbd_core.c:412
                break;
    18ec:	b7d5                	j	18d0 <usbd_setup_request_handler.constprop.3+0x22e>
usbd_std_device_req_handler():
E:/Project/PlumBL/CherryUSB/core/usbd_core.c:558
            *len = 0;
    18ee:	8001ac23          	sw	zero,-2024(gp) # 20000b88 <_edata+0x10>
E:/Project/PlumBL/CherryUSB/core/usbd_core.c:571
    return ret;
    18f2:	b509                	j	16f4 <usbd_setup_request_handler.constprop.3+0x52>
usbd_std_interface_req_handler():
E:/Project/PlumBL/CherryUSB/core/usbd_core.c:591
    if (!is_device_configured()) {
    18f4:	9251c603          	lbu	a2,-1755(gp) # 20000c95 <_edata+0x11d>
    18f8:	de060ee3          	beqz	a2,16f4 <usbd_setup_request_handler.constprop.3+0x52>
    18fc:	4619                	li	a2,6
E:/Project/PlumBL/CherryUSB/core/usbd_core.c:586
    uint8_t type = HI_BYTE(setup->wValue);
    18fe:	80a1d483          	lhu	s1,-2038(gp) # 20000b7a <_edata+0x2>
E:/Project/PlumBL/CherryUSB/core/usbd_core.c:587
    uint8_t intf_num = LO_BYTE(setup->wIndex);
    1902:	0046c903          	lbu	s2,4(a3)
E:/Project/PlumBL/CherryUSB/core/usbd_core.c:595
    switch (setup->bRequest) {
    1906:	04c78e63          	beq	a5,a2,1962 <usbd_setup_request_handler.constprop.3+0x2c0>
    190a:	00f66963          	bltu	a2,a5,191c <usbd_setup_request_handler.constprop.3+0x27a>
    190e:	de0793e3          	bnez	a5,16f4 <usbd_setup_request_handler.constprop.3+0x52>
E:/Project/PlumBL/CherryUSB/core/usbd_core.c:597
            (*data)[0] = 0x00;
    1912:	469c                	lw	a5,8(a3)
    1914:	00078023          	sb	zero,0(a5)
E:/Project/PlumBL/CherryUSB/core/usbd_core.c:598
            (*data)[1] = 0x00;
    1918:	469c                	lw	a5,8(a3)
    191a:	bd2d                	j	1754 <usbd_setup_request_handler.constprop.3+0xb2>
    191c:	4629                	li	a2,10
    191e:	08c78963          	beq	a5,a2,19b0 <usbd_setup_request_handler.constprop.3+0x30e>
    1922:	472d                	li	a4,11
    1924:	dce798e3          	bne	a5,a4,16f4 <usbd_setup_request_handler.constprop.3+0x52>
usbd_set_interface():
E:/Project/PlumBL/CherryUSB/core/usbd_core.c:448
    p = (uint8_t *)usbd_core_cfg.descriptors;
    1928:	4e80                	lw	s0,24(a3)
usbd_std_interface_req_handler():
E:/Project/PlumBL/CherryUSB/core/usbd_core.c:630
            usbd_set_interface(setup->wIndex, setup->wValue);
    192a:	0ff4f493          	andi	s1,s1,255
usbd_set_interface():
E:/Project/PlumBL/CherryUSB/core/usbd_core.c:438
    uint8_t cur_iface = 0xFF;
    192e:	0ff00993          	li	s3,255
E:/Project/PlumBL/CherryUSB/core/usbd_core.c:437
    uint8_t cur_alt_setting = 0xFF;
    1932:	0ff00a13          	li	s4,255
E:/Project/PlumBL/CherryUSB/core/usbd_core.c:435
    const uint8_t *if_desc = NULL;
    1936:	4a81                	li	s5,0
    1938:	4b91                	li	s7,4
    193a:	4c15                	li	s8,5
usbd_reset_endpoint():
E:/Project/PlumBL/CherryUSB/core/usbd_core.c:143
    USB_LOG_INFO("Close ep:0x%02x type:%u\r\n",
    193c:	00002c97          	auipc	s9,0x2
    1940:	5c4c8c93          	addi	s9,s9,1476 # 3f00 <msc_flash_descriptor+0x15c>
    1944:	00002d17          	auipc	s10,0x2
    1948:	648d0d13          	addi	s10,s10,1608 # 3f8c <msc_flash_descriptor+0x1e8>
    194c:	00002d97          	auipc	s11,0x2
    1950:	508d8d93          	addi	s11,s11,1288 # 3e54 <msc_flash_descriptor+0xb0>
usbd_set_interface():
E:/Project/PlumBL/CherryUSB/core/usbd_core.c:452
    while (p[DESC_bLength] != 0U) {
    1954:	00044783          	lbu	a5,0(s0)
    1958:	e3b5                	bnez	a5,19bc <usbd_setup_request_handler.constprop.3+0x31a>
E:/Project/PlumBL/CherryUSB/core/usbd_core.c:489
    usbd_class_event_notify_handler(USBD_EVENT_SET_INTERFACE, (void *)if_desc);
    195a:	85d6                	mv	a1,s5
    195c:	4521                	li	a0,8
    195e:	3105                	jal	157e <usbd_class_event_notify_handler>
usbd_std_interface_req_handler():
E:/Project/PlumBL/CherryUSB/core/usbd_core.c:631
            *len = 0;
    1960:	b509                	j	1762 <usbd_setup_request_handler.constprop.3+0xc0>
E:/Project/PlumBL/CherryUSB/core/usbd_core.c:603
            if (type == 0x22) { /* HID_DESCRIPTOR_TYPE_HID_REPORT */
    1962:	80a1                	srli	s1,s1,0x8
    1964:	02200793          	li	a5,34
    1968:	d8f496e3          	bne	s1,a5,16f4 <usbd_setup_request_handler.constprop.3+0x52>
E:/Project/PlumBL/CherryUSB/core/usbd_core.c:604
                USB_LOG_INFO("read hid report descriptor\r\n");
    196c:	00002517          	auipc	a0,0x2
    1970:	59450513          	addi	a0,a0,1428 # 3f00 <msc_flash_descriptor+0x15c>
    1974:	016010ef          	jal	ra,298a <iprintf>
    1978:	00002517          	auipc	a0,0x2
    197c:	5f850513          	addi	a0,a0,1528 # 3f70 <msc_flash_descriptor+0x1cc>
    1980:	128010ef          	jal	ra,2aa8 <puts>
    1984:	00002517          	auipc	a0,0x2
    1988:	4d050513          	addi	a0,a0,1232 # 3e54 <msc_flash_descriptor+0xb0>
    198c:	7ff000ef          	jal	ra,298a <iprintf>
E:/Project/PlumBL/CherryUSB/core/usbd_core.c:607
                usb_slist_for_each(i, &usbd_intf_head)
    1990:	20000797          	auipc	a5,0x20000
    1994:	36478793          	addi	a5,a5,868 # 20001cf4 <usbd_intf_head>
    1998:	439c                	lw	a5,0(a5)
    199a:	d4078de3          	beqz	a5,16f4 <usbd_setup_request_handler.constprop.3+0x52>
E:/Project/PlumBL/CherryUSB/core/usbd_core.c:611
                    if (intf->intf_num == intf_num) {
    199e:	01c7c703          	lbu	a4,28(a5)
    19a2:	ff271be3          	bne	a4,s2,1998 <usbd_setup_request_handler.constprop.3+0x2f6>
E:/Project/PlumBL/CherryUSB/core/usbd_core.c:612
                        *data = (uint8_t *)intf->hid_report_descriptor;
    19a6:	4bd8                	lw	a4,20(a5)
E:/Project/PlumBL/CherryUSB/core/usbd_core.c:613
                        *len = intf->hid_report_descriptor_len;
    19a8:	4f9c                	lw	a5,24(a5)
E:/Project/PlumBL/CherryUSB/core/usbd_core.c:612
                        *data = (uint8_t *)intf->hid_report_descriptor;
    19aa:	80e1a823          	sw	a4,-2032(gp) # 20000b80 <_edata+0x8>
E:/Project/PlumBL/CherryUSB/core/usbd_core.c:613
                        *len = intf->hid_report_descriptor_len;
    19ae:	b539                	j	17bc <usbd_setup_request_handler.constprop.3+0x11a>
E:/Project/PlumBL/CherryUSB/core/usbd_core.c:625
            (*data)[0] = 0;
    19b0:	469c                	lw	a5,8(a3)
    19b2:	00078023          	sb	zero,0(a5)
usbd_std_endpoint_req_handler():
E:/Project/PlumBL/CherryUSB/core/usbd_core.c:665
            *len = 2;
    19b6:	80e1ac23          	sw	a4,-2024(gp) # 20000b88 <_edata+0x10>
E:/Project/PlumBL/CherryUSB/core/usbd_core.c:666
            break;
    19ba:	a629                	j	1cc4 <usbd_setup_request_handler.constprop.3+0x622>
usbd_set_interface():
E:/Project/PlumBL/CherryUSB/core/usbd_core.c:453
        switch (p[DESC_bDescriptorType]) {
    19bc:	00144783          	lbu	a5,1(s0)
    19c0:	01778863          	beq	a5,s7,19d0 <usbd_setup_request_handler.constprop.3+0x32e>
    19c4:	03878063          	beq	a5,s8,19e4 <usbd_setup_request_handler.constprop.3+0x342>
E:/Project/PlumBL/CherryUSB/core/usbd_core.c:486
        p += p[DESC_bLength];
    19c8:	00044783          	lbu	a5,0(s0)
    19cc:	943e                	add	s0,s0,a5
    19ce:	b759                	j	1954 <usbd_setup_request_handler.constprop.3+0x2b2>
E:/Project/PlumBL/CherryUSB/core/usbd_core.c:457
                cur_iface = p[INTF_DESC_bInterfaceNumber];
    19d0:	00244983          	lbu	s3,2(s0)
E:/Project/PlumBL/CherryUSB/core/usbd_core.c:456
                cur_alt_setting = p[INTF_DESC_bAlternateSetting];
    19d4:	00344a03          	lbu	s4,3(s0)
E:/Project/PlumBL/CherryUSB/core/usbd_core.c:459
                if (cur_iface == iface &&
    19d8:	ff3918e3          	bne	s2,s3,19c8 <usbd_setup_request_handler.constprop.3+0x326>
    19dc:	ff4496e3          	bne	s1,s4,19c8 <usbd_setup_request_handler.constprop.3+0x326>
    19e0:	8aa2                	mv	s5,s0
    19e2:	b7dd                	j	19c8 <usbd_setup_request_handler.constprop.3+0x326>
E:/Project/PlumBL/CherryUSB/core/usbd_core.c:469
                if (cur_iface == iface) {
    19e4:	ff3912e3          	bne	s2,s3,19c8 <usbd_setup_request_handler.constprop.3+0x326>
E:/Project/PlumBL/CherryUSB/core/usbd_core.c:472
                    if (cur_alt_setting != alt_setting) {
    19e8:	03448763          	beq	s1,s4,1a16 <usbd_setup_request_handler.constprop.3+0x374>
usbd_reset_endpoint():
E:/Project/PlumBL/CherryUSB/core/usbd_core.c:141
    ep_cfg.ep_type = ep_desc->bmAttributes & USB_ENDPOINT_TYPE_MASK;
    19ec:	00344603          	lbu	a2,3(s0)
E:/Project/PlumBL/CherryUSB/core/usbd_core.c:143
    USB_LOG_INFO("Close ep:0x%02x type:%u\r\n",
    19f0:	8566                	mv	a0,s9
E:/Project/PlumBL/CherryUSB/core/usbd_core.c:139
    ep_cfg.ep_addr = ep_desc->bEndpointAddress;
    19f2:	00244b03          	lbu	s6,2(s0)
E:/Project/PlumBL/CherryUSB/core/usbd_core.c:141
    ep_cfg.ep_type = ep_desc->bmAttributes & USB_ENDPOINT_TYPE_MASK;
    19f6:	8a0d                	andi	a2,a2,3
    19f8:	c632                	sw	a2,12(sp)
E:/Project/PlumBL/CherryUSB/core/usbd_core.c:143
    USB_LOG_INFO("Close ep:0x%02x type:%u\r\n",
    19fa:	791000ef          	jal	ra,298a <iprintf>
    19fe:	4632                	lw	a2,12(sp)
    1a00:	85da                	mv	a1,s6
    1a02:	856a                	mv	a0,s10
    1a04:	787000ef          	jal	ra,298a <iprintf>
    1a08:	856e                	mv	a0,s11
    1a0a:	781000ef          	jal	ra,298a <iprintf>
E:/Project/PlumBL/CherryUSB/core/usbd_core.c:146
    return usbd_ep_close(ep_cfg.ep_addr) == 0 ? true : false;
    1a0e:	855a                	mv	a0,s6
    1a10:	88bff0ef          	jal	ra,129a <usbd_ep_close>
    1a14:	bf55                	j	19c8 <usbd_setup_request_handler.constprop.3+0x326>
usbd_set_interface():
E:/Project/PlumBL/CherryUSB/core/usbd_core.c:475
                        ret = usbd_set_endpoint(ep_desc);
    1a16:	8522                	mv	a0,s0
    1a18:	3e69                	jal	15b2 <usbd_set_endpoint>
    1a1a:	b77d                	j	19c8 <usbd_setup_request_handler.constprop.3+0x326>
usbd_std_endpoint_req_handler():
E:/Project/PlumBL/CherryUSB/core/usbd_core.c:657
    if (!is_device_configured()) {
    1a1c:	9251c583          	lbu	a1,-1755(gp) # 20000c95 <_edata+0x11d>
    1a20:	cc058ae3          	beqz	a1,16f4 <usbd_setup_request_handler.constprop.3+0x52>
E:/Project/PlumBL/CherryUSB/core/usbd_core.c:653
    uint8_t ep = (uint8_t)setup->wIndex;
    1a24:	0046c403          	lbu	s0,4(a3)
E:/Project/PlumBL/CherryUSB/core/usbd_core.c:661
    switch (setup->bRequest) {
    1a28:	04c78763          	beq	a5,a2,1a76 <usbd_setup_request_handler.constprop.3+0x3d4>
    1a2c:	cf95                	beqz	a5,1a68 <usbd_setup_request_handler.constprop.3+0x3c6>
    1a2e:	470d                	li	a4,3
    1a30:	cce792e3          	bne	a5,a4,16f4 <usbd_setup_request_handler.constprop.3+0x52>
E:/Project/PlumBL/CherryUSB/core/usbd_core.c:679
            if (setup->wValue == USB_FEATURE_ENDPOINT_HALT) {
    1a34:	80a1d783          	lhu	a5,-2038(gp) # 20000b7a <_edata+0x2>
    1a38:	ea079be3          	bnez	a5,18ee <usbd_setup_request_handler.constprop.3+0x24c>
E:/Project/PlumBL/CherryUSB/core/usbd_core.c:680
                USB_LOG_ERR("ep:%02x set halt\r\n", ep);
    1a3c:	00002517          	auipc	a0,0x2
    1a40:	3f050513          	addi	a0,a0,1008 # 3e2c <msc_flash_descriptor+0x88>
    1a44:	747000ef          	jal	ra,298a <iprintf>
    1a48:	85a2                	mv	a1,s0
    1a4a:	00002517          	auipc	a0,0x2
    1a4e:	57650513          	addi	a0,a0,1398 # 3fc0 <msc_flash_descriptor+0x21c>
    1a52:	739000ef          	jal	ra,298a <iprintf>
    1a56:	00002517          	auipc	a0,0x2
    1a5a:	3fe50513          	addi	a0,a0,1022 # 3e54 <msc_flash_descriptor+0xb0>
    1a5e:	72d000ef          	jal	ra,298a <iprintf>
E:/Project/PlumBL/CherryUSB/core/usbd_core.c:682
                usbd_ep_set_stall(ep);
    1a62:	8522                	mv	a0,s0
    1a64:	324d                	jal	1406 <usbd_ep_set_stall>
    1a66:	b9f5                	j	1762 <usbd_setup_request_handler.constprop.3+0xc0>
E:/Project/PlumBL/CherryUSB/core/usbd_core.c:663
            (*data)[0] = 0x00;
    1a68:	469c                	lw	a5,8(a3)
    1a6a:	00078023          	sb	zero,0(a5)
E:/Project/PlumBL/CherryUSB/core/usbd_core.c:664
            (*data)[1] = 0x00;
    1a6e:	469c                	lw	a5,8(a3)
    1a70:	000780a3          	sb	zero,1(a5)
    1a74:	b789                	j	19b6 <usbd_setup_request_handler.constprop.3+0x314>
E:/Project/PlumBL/CherryUSB/core/usbd_core.c:668
            if (setup->wValue == USB_FEATURE_ENDPOINT_HALT) {
    1a76:	80a1d783          	lhu	a5,-2038(gp) # 20000b7a <_edata+0x2>
    1a7a:	e6079ae3          	bnez	a5,18ee <usbd_setup_request_handler.constprop.3+0x24c>
E:/Project/PlumBL/CherryUSB/core/usbd_core.c:669
                USB_LOG_ERR("ep:%02x clear halt\r\n", ep);
    1a7e:	00002517          	auipc	a0,0x2
    1a82:	3ae50513          	addi	a0,a0,942 # 3e2c <msc_flash_descriptor+0x88>
    1a86:	705000ef          	jal	ra,298a <iprintf>
    1a8a:	85a2                	mv	a1,s0
    1a8c:	00002517          	auipc	a0,0x2
    1a90:	51c50513          	addi	a0,a0,1308 # 3fa8 <msc_flash_descriptor+0x204>
    1a94:	6f7000ef          	jal	ra,298a <iprintf>
    1a98:	00002517          	auipc	a0,0x2
    1a9c:	3bc50513          	addi	a0,a0,956 # 3e54 <msc_flash_descriptor+0xb0>
    1aa0:	6eb000ef          	jal	ra,298a <iprintf>
E:/Project/PlumBL/CherryUSB/core/usbd_core.c:671
                usbd_ep_clear_stall(ep);
    1aa4:	8522                	mv	a0,s0
    1aa6:	3a79                	jal	1444 <usbd_ep_clear_stall>
E:/Project/PlumBL/CherryUSB/core/usbd_core.c:672
                break;
    1aa8:	ac31                	j	1cc4 <usbd_setup_request_handler.constprop.3+0x622>
usbd_setup_request_handler():
E:/Project/PlumBL/CherryUSB/core/usbd_core.c:908
                USB_LOG_ERR("standard request error\r\n");
    1aaa:	00002517          	auipc	a0,0x2
    1aae:	38250513          	addi	a0,a0,898 # 3e2c <msc_flash_descriptor+0x88>
    1ab2:	6d9000ef          	jal	ra,298a <iprintf>
    1ab6:	00002517          	auipc	a0,0x2
    1aba:	54250513          	addi	a0,a0,1346 # 3ff8 <msc_flash_descriptor+0x254>
E:/Project/PlumBL/CherryUSB/core/usbd_core.c:922
                USB_LOG_ERR("vendor request error\r\n");
    1abe:	7eb000ef          	jal	ra,2aa8 <puts>
    1ac2:	00002517          	auipc	a0,0x2
    1ac6:	39250513          	addi	a0,a0,914 # 3e54 <msc_flash_descriptor+0xb0>
    1aca:	6c1000ef          	jal	ra,298a <iprintf>
E:/Project/PlumBL/CherryUSB/core/usbd_core.c:923
                usbd_print_setup(setup);
    1ace:	3e41                	jal	165e <usbd_print_setup.constprop.12>
    1ad0:	b9a9                	j	172a <usbd_setup_request_handler.constprop.3+0x88>
usbd_class_request_handler():
E:/Project/PlumBL/CherryUSB/core/usbd_core.c:757
    if ((setup->bmRequestType & USB_REQUEST_RECIPIENT_MASK) == USB_REQUEST_RECIPIENT_INTERFACE) {
    1ad2:	8b0d                	andi	a4,a4,3
    1ad4:	4785                	li	a5,1
    1ad6:	04f71763          	bne	a4,a5,1b24 <usbd_setup_request_handler.constprop.3+0x482>
E:/Project/PlumBL/CherryUSB/core/usbd_core.c:758
        usb_slist_for_each(i, &usbd_intf_head)
    1ada:	20000797          	auipc	a5,0x20000
    1ade:	21a78793          	addi	a5,a5,538 # 20001cf4 <usbd_intf_head>
    1ae2:	439c                	lw	a5,0(a5)
E:/Project/PlumBL/CherryUSB/core/usbd_core.c:762
            if (intf->class_interface_handler && (intf->intf_num == (setup->wIndex & 0xFF))) {
    1ae4:	0046c683          	lbu	a3,4(a3)
E:/Project/PlumBL/CherryUSB/core/usbd_core.c:758
        usb_slist_for_each(i, &usbd_intf_head)
    1ae8:	ef81                	bnez	a5,1b00 <usbd_setup_request_handler.constprop.3+0x45e>
usbd_setup_request_handler():
E:/Project/PlumBL/CherryUSB/core/usbd_core.c:915
                USB_LOG_ERR("class request error\r\n");
    1aea:	00002517          	auipc	a0,0x2
    1aee:	34250513          	addi	a0,a0,834 # 3e2c <msc_flash_descriptor+0x88>
    1af2:	699000ef          	jal	ra,298a <iprintf>
    1af6:	00002517          	auipc	a0,0x2
    1afa:	51a50513          	addi	a0,a0,1306 # 4010 <msc_flash_descriptor+0x26c>
    1afe:	b7c1                	j	1abe <usbd_setup_request_handler.constprop.3+0x41c>
usbd_class_request_handler():
E:/Project/PlumBL/CherryUSB/core/usbd_core.c:762
            if (intf->class_interface_handler && (intf->intf_num == (setup->wIndex & 0xFF))) {
    1b00:	43d8                	lw	a4,4(a5)
    1b02:	cf19                	beqz	a4,1b20 <usbd_setup_request_handler.constprop.3+0x47e>
    1b04:	01c7c603          	lbu	a2,28(a5)
    1b08:	00d61c63          	bne	a2,a3,1b20 <usbd_setup_request_handler.constprop.3+0x47e>
E:/Project/PlumBL/CherryUSB/core/usbd_core.c:763
                return intf->class_interface_handler(setup, data, len);
    1b0c:	81818613          	addi	a2,gp,-2024 # 20000b88 <_edata+0x10>
    1b10:	81018593          	addi	a1,gp,-2032 # 20000b80 <_edata+0x8>
    1b14:	80818513          	addi	a0,gp,-2040 # 20000b78 <_edata>
    1b18:	9702                	jalr	a4
usbd_setup_request_handler():
E:/Project/PlumBL/CherryUSB/core/usbd_core.c:914
            if (usbd_class_request_handler(setup, data, len) < 0) {
    1b1a:	1a055563          	bgez	a0,1cc4 <usbd_setup_request_handler.constprop.3+0x622>
    1b1e:	b7f1                	j	1aea <usbd_setup_request_handler.constprop.3+0x448>
usbd_class_request_handler():
E:/Project/PlumBL/CherryUSB/core/usbd_core.c:758
        usb_slist_for_each(i, &usbd_intf_head)
    1b20:	439c                	lw	a5,0(a5)
    1b22:	b7d9                	j	1ae8 <usbd_setup_request_handler.constprop.3+0x446>
E:/Project/PlumBL/CherryUSB/core/usbd_core.c:766
    } else if ((setup->bmRequestType & USB_REQUEST_RECIPIENT_MASK) == USB_REQUEST_RECIPIENT_ENDPOINT) {
    1b24:	4789                	li	a5,2
    1b26:	fcf712e3          	bne	a4,a5,1aea <usbd_setup_request_handler.constprop.3+0x448>
E:/Project/PlumBL/CherryUSB/core/usbd_core.c:767
        usb_slist_for_each(i, &usbd_intf_head)
    1b2a:	20000797          	auipc	a5,0x20000
    1b2e:	1ca78793          	addi	a5,a5,458 # 20001cf4 <usbd_intf_head>
    1b32:	439c                	lw	a5,0(a5)
E:/Project/PlumBL/CherryUSB/core/usbd_core.c:771
            if (intf->class_endpoint_handler && (intf->intf_num == ((setup->wIndex >> 8) & 0xFF))) {
    1b34:	80c1d703          	lhu	a4,-2036(gp) # 20000b7c <_edata+0x4>
    1b38:	8321                	srli	a4,a4,0x8
E:/Project/PlumBL/CherryUSB/core/usbd_core.c:767
        usb_slist_for_each(i, &usbd_intf_head)
    1b3a:	dbc5                	beqz	a5,1aea <usbd_setup_request_handler.constprop.3+0x448>
E:/Project/PlumBL/CherryUSB/core/usbd_core.c:771
            if (intf->class_endpoint_handler && (intf->intf_num == ((setup->wIndex >> 8) & 0xFF))) {
    1b3c:	4794                	lw	a3,8(a5)
    1b3e:	ce89                	beqz	a3,1b58 <usbd_setup_request_handler.constprop.3+0x4b6>
    1b40:	01c7c603          	lbu	a2,28(a5)
    1b44:	00e61a63          	bne	a2,a4,1b58 <usbd_setup_request_handler.constprop.3+0x4b6>
E:/Project/PlumBL/CherryUSB/core/usbd_core.c:772
                return intf->class_endpoint_handler(setup, data, len);
    1b48:	81818613          	addi	a2,gp,-2024 # 20000b88 <_edata+0x10>
    1b4c:	81018593          	addi	a1,gp,-2032 # 20000b80 <_edata+0x8>
    1b50:	80818513          	addi	a0,gp,-2040 # 20000b78 <_edata>
    1b54:	9682                	jalr	a3
    1b56:	b7d1                	j	1b1a <usbd_setup_request_handler.constprop.3+0x478>
E:/Project/PlumBL/CherryUSB/core/usbd_core.c:767
        usb_slist_for_each(i, &usbd_intf_head)
    1b58:	439c                	lw	a5,0(a5)
    1b5a:	b7c5                	j	1b3a <usbd_setup_request_handler.constprop.3+0x498>
usbd_vendor_request_handler():
E:/Project/PlumBL/CherryUSB/core/usbd_core.c:839
    if (msosv1_desc) {
    1b5c:	20000417          	auipc	s0,0x20000
    1b60:	19040413          	addi	s0,s0,400 # 20001cec <msosv1_desc>
    1b64:	401c                	lw	a5,0(s0)
    1b66:	cfd5                	beqz	a5,1c22 <usbd_setup_request_handler.constprop.3+0x580>
E:/Project/PlumBL/CherryUSB/core/usbd_core.c:840
        if (setup->bRequest == msosv1_desc->vendor_code) {
    1b68:	0057c783          	lbu	a5,5(a5)
    1b6c:	8091c703          	lbu	a4,-2039(gp) # 20000b79 <_edata+0x1>
    1b70:	10f71363          	bne	a4,a5,1c76 <usbd_setup_request_handler.constprop.3+0x5d4>
E:/Project/PlumBL/CherryUSB/core/usbd_core.c:841
            switch (setup->wIndex) {
    1b74:	80c1d783          	lhu	a5,-2036(gp) # 20000b7c <_edata+0x4>
    1b78:	4711                	li	a4,4
    1b7a:	04e78263          	beq	a5,a4,1bbe <usbd_setup_request_handler.constprop.3+0x51c>
    1b7e:	4715                	li	a4,5
    1b80:	06e78863          	beq	a5,a4,1bf0 <usbd_setup_request_handler.constprop.3+0x54e>
E:/Project/PlumBL/CherryUSB/core/usbd_core.c:855
                    USB_LOG_ERR("unknown vendor code\r\n");
    1b84:	00002517          	auipc	a0,0x2
    1b88:	2a850513          	addi	a0,a0,680 # 3e2c <msc_flash_descriptor+0x88>
    1b8c:	5ff000ef          	jal	ra,298a <iprintf>
    1b90:	00002517          	auipc	a0,0x2
    1b94:	4c450513          	addi	a0,a0,1220 # 4054 <msc_flash_descriptor+0x2b0>
    1b98:	711000ef          	jal	ra,2aa8 <puts>
    1b9c:	00002517          	auipc	a0,0x2
    1ba0:	2b850513          	addi	a0,a0,696 # 3e54 <msc_flash_descriptor+0xb0>
    1ba4:	5e7000ef          	jal	ra,298a <iprintf>
usbd_setup_request_handler():
E:/Project/PlumBL/CherryUSB/core/usbd_core.c:922
                USB_LOG_ERR("vendor request error\r\n");
    1ba8:	00002517          	auipc	a0,0x2
    1bac:	28450513          	addi	a0,a0,644 # 3e2c <msc_flash_descriptor+0x88>
    1bb0:	5db000ef          	jal	ra,298a <iprintf>
    1bb4:	00002517          	auipc	a0,0x2
    1bb8:	4d450513          	addi	a0,a0,1236 # 4088 <msc_flash_descriptor+0x2e4>
    1bbc:	b709                	j	1abe <usbd_setup_request_handler.constprop.3+0x41c>
usbd_vendor_request_handler():
E:/Project/PlumBL/CherryUSB/core/usbd_core.c:843
                    USB_LOG_INFO("get Compat ID\r\n");
    1bbe:	00002517          	auipc	a0,0x2
    1bc2:	34250513          	addi	a0,a0,834 # 3f00 <msc_flash_descriptor+0x15c>
    1bc6:	5c5000ef          	jal	ra,298a <iprintf>
    1bca:	00002517          	auipc	a0,0x2
    1bce:	45e50513          	addi	a0,a0,1118 # 4028 <msc_flash_descriptor+0x284>
    1bd2:	6d7000ef          	jal	ra,2aa8 <puts>
    1bd6:	00002517          	auipc	a0,0x2
    1bda:	27e50513          	addi	a0,a0,638 # 3e54 <msc_flash_descriptor+0xb0>
    1bde:	5ad000ef          	jal	ra,298a <iprintf>
E:/Project/PlumBL/CherryUSB/core/usbd_core.c:844
                    *data = (uint8_t *)msosv1_desc->compat_id;
    1be2:	401c                	lw	a5,0(s0)
    1be4:	4798                	lw	a4,8(a5)
E:/Project/PlumBL/CherryUSB/core/usbd_core.c:845
                    *len = msosv1_desc->compat_id_len;
    1be6:	00c7d783          	lhu	a5,12(a5)
E:/Project/PlumBL/CherryUSB/core/usbd_core.c:844
                    *data = (uint8_t *)msosv1_desc->compat_id;
    1bea:	80e1a823          	sw	a4,-2032(gp) # 20000b80 <_edata+0x8>
E:/Project/PlumBL/CherryUSB/core/usbd_core.c:845
                    *len = msosv1_desc->compat_id_len;
    1bee:	b6f9                	j	17bc <usbd_setup_request_handler.constprop.3+0x11a>
E:/Project/PlumBL/CherryUSB/core/usbd_core.c:849
                    USB_LOG_INFO("get Compat id properties\r\n");
    1bf0:	00002517          	auipc	a0,0x2
    1bf4:	31050513          	addi	a0,a0,784 # 3f00 <msc_flash_descriptor+0x15c>
    1bf8:	593000ef          	jal	ra,298a <iprintf>
    1bfc:	00002517          	auipc	a0,0x2
    1c00:	43c50513          	addi	a0,a0,1084 # 4038 <msc_flash_descriptor+0x294>
    1c04:	6a5000ef          	jal	ra,2aa8 <puts>
    1c08:	00002517          	auipc	a0,0x2
    1c0c:	24c50513          	addi	a0,a0,588 # 3e54 <msc_flash_descriptor+0xb0>
    1c10:	57b000ef          	jal	ra,298a <iprintf>
E:/Project/PlumBL/CherryUSB/core/usbd_core.c:850
                    *data = (uint8_t *)msosv1_desc->comp_id_property;
    1c14:	401c                	lw	a5,0(s0)
    1c16:	4b98                	lw	a4,16(a5)
E:/Project/PlumBL/CherryUSB/core/usbd_core.c:851
                    *len = msosv1_desc->comp_id_property_len;
    1c18:	0147d783          	lhu	a5,20(a5)
E:/Project/PlumBL/CherryUSB/core/usbd_core.c:850
                    *data = (uint8_t *)msosv1_desc->comp_id_property;
    1c1c:	80e1a823          	sw	a4,-2032(gp) # 20000b80 <_edata+0x8>
E:/Project/PlumBL/CherryUSB/core/usbd_core.c:851
                    *len = msosv1_desc->comp_id_property_len;
    1c20:	be71                	j	17bc <usbd_setup_request_handler.constprop.3+0x11a>
E:/Project/PlumBL/CherryUSB/core/usbd_core.c:859
    } else if (msosv2_desc) {
    1c22:	20000417          	auipc	s0,0x20000
    1c26:	0ce40413          	addi	s0,s0,206 # 20001cf0 <msosv2_desc>
    1c2a:	401c                	lw	a5,0(s0)
    1c2c:	c7a9                	beqz	a5,1c76 <usbd_setup_request_handler.constprop.3+0x5d4>
E:/Project/PlumBL/CherryUSB/core/usbd_core.c:860
        if (setup->bRequest == msosv2_desc->vendor_code) {
    1c2e:	0067c783          	lbu	a5,6(a5)
    1c32:	8091c703          	lbu	a4,-2039(gp) # 20000b79 <_edata+0x1>
    1c36:	04f71063          	bne	a4,a5,1c76 <usbd_setup_request_handler.constprop.3+0x5d4>
E:/Project/PlumBL/CherryUSB/core/usbd_core.c:861
            switch (setup->wIndex) {
    1c3a:	80c1d703          	lhu	a4,-2036(gp) # 20000b7c <_edata+0x4>
    1c3e:	479d                	li	a5,7
    1c40:	f4f712e3          	bne	a4,a5,1b84 <usbd_setup_request_handler.constprop.3+0x4e2>
E:/Project/PlumBL/CherryUSB/core/usbd_core.c:863
                    USB_LOG_INFO("GET MS OS 2.0 Descriptor\r\n");
    1c44:	00002517          	auipc	a0,0x2
    1c48:	2bc50513          	addi	a0,a0,700 # 3f00 <msc_flash_descriptor+0x15c>
    1c4c:	53f000ef          	jal	ra,298a <iprintf>
    1c50:	00002517          	auipc	a0,0x2
    1c54:	41c50513          	addi	a0,a0,1052 # 406c <msc_flash_descriptor+0x2c8>
    1c58:	651000ef          	jal	ra,2aa8 <puts>
    1c5c:	00002517          	auipc	a0,0x2
    1c60:	1f850513          	addi	a0,a0,504 # 3e54 <msc_flash_descriptor+0xb0>
    1c64:	527000ef          	jal	ra,298a <iprintf>
E:/Project/PlumBL/CherryUSB/core/usbd_core.c:864
                    *data = (uint8_t *)msosv2_desc->compat_id;
    1c68:	401c                	lw	a5,0(s0)
    1c6a:	4398                	lw	a4,0(a5)
E:/Project/PlumBL/CherryUSB/core/usbd_core.c:865
                    *len = msosv2_desc->compat_id_len;
    1c6c:	0047d783          	lhu	a5,4(a5)
E:/Project/PlumBL/CherryUSB/core/usbd_core.c:864
                    *data = (uint8_t *)msosv2_desc->compat_id;
    1c70:	80e1a823          	sw	a4,-2032(gp) # 20000b80 <_edata+0x8>
E:/Project/PlumBL/CherryUSB/core/usbd_core.c:865
                    *len = msosv2_desc->compat_id_len;
    1c74:	b6a1                	j	17bc <usbd_setup_request_handler.constprop.3+0x11a>
E:/Project/PlumBL/CherryUSB/core/usbd_core.c:876
    usb_slist_for_each(i, &usbd_intf_head)
    1c76:	20000797          	auipc	a5,0x20000
    1c7a:	07e78793          	addi	a5,a5,126 # 20001cf4 <usbd_intf_head>
    1c7e:	4380                	lw	s0,0(a5)
E:/Project/PlumBL/CherryUSB/core/usbd_core.c:880
        if (intf->vendor_handler && !intf->vendor_handler(setup, data, len)) {
    1c80:	81818493          	addi	s1,gp,-2024 # 20000b88 <_edata+0x10>
    1c84:	81018913          	addi	s2,gp,-2032 # 20000b80 <_edata+0x8>
    1c88:	80818993          	addi	s3,gp,-2040 # 20000b78 <_edata>
E:/Project/PlumBL/CherryUSB/core/usbd_core.c:876
    usb_slist_for_each(i, &usbd_intf_head)
    1c8c:	f0040ee3          	beqz	s0,1ba8 <usbd_setup_request_handler.constprop.3+0x506>
E:/Project/PlumBL/CherryUSB/core/usbd_core.c:880
        if (intf->vendor_handler && !intf->vendor_handler(setup, data, len)) {
    1c90:	445c                	lw	a5,12(s0)
    1c92:	e399                	bnez	a5,1c98 <usbd_setup_request_handler.constprop.3+0x5f6>
E:/Project/PlumBL/CherryUSB/core/usbd_core.c:876
    usb_slist_for_each(i, &usbd_intf_head)
    1c94:	4000                	lw	s0,0(s0)
    1c96:	bfdd                	j	1c8c <usbd_setup_request_handler.constprop.3+0x5ea>
E:/Project/PlumBL/CherryUSB/core/usbd_core.c:880
        if (intf->vendor_handler && !intf->vendor_handler(setup, data, len)) {
    1c98:	8626                	mv	a2,s1
    1c9a:	85ca                	mv	a1,s2
    1c9c:	854e                	mv	a0,s3
    1c9e:	9782                	jalr	a5
    1ca0:	f975                	bnez	a0,1c94 <usbd_setup_request_handler.constprop.3+0x5f2>
    1ca2:	a00d                	j	1cc4 <usbd_setup_request_handler.constprop.3+0x622>
usbd_get_descriptor():
E:/Project/PlumBL/CherryUSB/core/usbd_core.c:339
        if ((type == USB_DESCRIPTOR_TYPE_CONFIGURATION) || ((type == USB_DESCRIPTOR_TYPE_OTHER_SPEED))) {
    1ca4:	4709                	li	a4,2
    1ca6:	00e69863          	bne	a3,a4,1cb6 <usbd_setup_request_handler.constprop.3+0x614>
E:/Project/PlumBL/CherryUSB/core/usbd_core.c:343
            *len = (p[CONF_DESC_wTotalLength]) |
    1caa:	0037c603          	lbu	a2,3(a5)
    1cae:	0027c703          	lbu	a4,2(a5)
    1cb2:	0622                	slli	a2,a2,0x8
    1cb4:	8e59                	or	a2,a2,a4
E:/Project/PlumBL/CherryUSB/core/usbd_core.c:349
        memcpy(*data, p, *len);
    1cb6:	00882503          	lw	a0,8(a6)
    1cba:	85be                	mv	a1,a5
    1cbc:	80c1ac23          	sw	a2,-2024(gp) # 20000b88 <_edata+0x10>
    1cc0:	415000ef          	jal	ra,28d4 <memcpy>
usbd_setup_request_handler():
E:/Project/PlumBL/CherryUSB/core/usbd_core.c:932
    return true;
    1cc4:	4405                	li	s0,1
    1cc6:	bec1                	j	1896 <usbd_setup_request_handler.constprop.3+0x1f4>

00001cc8 <usbd_event_ep0_out_complete_handler>:
usbd_event_ep0_out_complete_handler():
E:/Project/PlumBL/CherryUSB/core/usbd_core.c:1086

void usbd_event_ep0_out_complete_handler(uint8_t ep, uint32_t nbytes)
{
    struct usb_setup_packet *setup = &usbd_core_cfg.setup;

    if (nbytes > 0) {
    1cc8:	c5b9                	beqz	a1,1d16 <usbd_event_ep0_out_complete_handler+0x4e>
E:/Project/PlumBL/CherryUSB/core/usbd_core.c:1087
        usbd_core_cfg.ep0_data_buf += nbytes;
    1cca:	80818713          	addi	a4,gp,-2040 # 20000b78 <_edata>
    1cce:	471c                	lw	a5,8(a4)
E:/Project/PlumBL/CherryUSB/core/usbd_core.c:1088
        usbd_core_cfg.ep0_data_buf_residue -= nbytes;
    1cd0:	4750                	lw	a2,12(a4)
E:/Project/PlumBL/CherryUSB/core/usbd_core.c:1087
        usbd_core_cfg.ep0_data_buf += nbytes;
    1cd2:	97ae                	add	a5,a5,a1
E:/Project/PlumBL/CherryUSB/core/usbd_core.c:1088
        usbd_core_cfg.ep0_data_buf_residue -= nbytes;
    1cd4:	8e0d                	sub	a2,a2,a1
E:/Project/PlumBL/CherryUSB/core/usbd_core.c:1087
        usbd_core_cfg.ep0_data_buf += nbytes;
    1cd6:	80f1a823          	sw	a5,-2032(gp) # 20000b80 <_edata+0x8>
E:/Project/PlumBL/CherryUSB/core/usbd_core.c:1088
        usbd_core_cfg.ep0_data_buf_residue -= nbytes;
    1cda:	80c1aa23          	sw	a2,-2028(gp) # 20000b84 <_edata+0xc>
E:/Project/PlumBL/CherryUSB/core/usbd_core.c:1092

        USB_LOG_DBG("EP0 recv %d bytes, %d remained\r\n", nbytes, usbd_core_cfg.ep0_data_buf_residue);

        if (usbd_core_cfg.ep0_data_buf_residue == 0) {
    1cde:	ea05                	bnez	a2,1d0e <usbd_event_ep0_out_complete_handler+0x46>
E:/Project/PlumBL/CherryUSB/core/usbd_core.c:1083
{
    1ce0:	1141                	addi	sp,sp,-16
E:/Project/PlumBL/CherryUSB/core/usbd_core.c:1094
            /* Received all, send data to handler */
            usbd_core_cfg.ep0_data_buf = usbd_core_cfg.req_data;
    1ce2:	82418793          	addi	a5,gp,-2012 # 20000b94 <_edata+0x1c>
E:/Project/PlumBL/CherryUSB/core/usbd_core.c:1083
{
    1ce6:	c606                	sw	ra,12(sp)
E:/Project/PlumBL/CherryUSB/core/usbd_core.c:1094
            usbd_core_cfg.ep0_data_buf = usbd_core_cfg.req_data;
    1ce8:	80f1a823          	sw	a5,-2032(gp) # 20000b80 <_edata+0x8>
E:/Project/PlumBL/CherryUSB/core/usbd_core.c:1095
            if (!usbd_setup_request_handler(setup, &usbd_core_cfg.ep0_data_buf, &usbd_core_cfg.ep0_data_buf_len)) {
    1cec:	9b7ff0ef          	jal	ra,16a2 <usbd_setup_request_handler.constprop.3>
    1cf0:	e519                	bnez	a0,1cfe <usbd_event_ep0_out_complete_handler+0x36>
E:/Project/PlumBL/CherryUSB/core/usbd_core.c:1110
        }
    } else {
        /* Read out status completely, do nothing */
        USB_LOG_DBG("EP0 recv out status\r\n");
    }
}
    1cf2:	40b2                	lw	ra,12(sp)
E:/Project/PlumBL/CherryUSB/core/usbd_core.c:1096
                usbd_ep_set_stall(USB_CONTROL_IN_EP0);
    1cf4:	08000513          	li	a0,128
E:/Project/PlumBL/CherryUSB/core/usbd_core.c:1110
}
    1cf8:	0141                	addi	sp,sp,16
E:/Project/PlumBL/CherryUSB/core/usbd_core.c:1096
                usbd_ep_set_stall(USB_CONTROL_IN_EP0);
    1cfa:	f0cff06f          	j	1406 <usbd_ep_set_stall>
E:/Project/PlumBL/CherryUSB/core/usbd_core.c:1110
}
    1cfe:	40b2                	lw	ra,12(sp)
E:/Project/PlumBL/CherryUSB/core/usbd_core.c:1101
            usbd_ep_start_write(USB_CONTROL_IN_EP0, NULL, 0);
    1d00:	4601                	li	a2,0
    1d02:	4581                	li	a1,0
    1d04:	08000513          	li	a0,128
E:/Project/PlumBL/CherryUSB/core/usbd_core.c:1110
}
    1d08:	0141                	addi	sp,sp,16
E:/Project/PlumBL/CherryUSB/core/usbd_core.c:1101
            usbd_ep_start_write(USB_CONTROL_IN_EP0, NULL, 0);
    1d0a:	dbaff06f          	j	12c4 <usbd_ep_start_write>
E:/Project/PlumBL/CherryUSB/core/usbd_core.c:1104
            usbd_ep_start_read(USB_CONTROL_OUT_EP0, usbd_core_cfg.ep0_data_buf, usbd_core_cfg.ep0_data_buf_residue);
    1d0e:	85be                	mv	a1,a5
    1d10:	4501                	li	a0,0
    1d12:	e78ff06f          	j	138a <usbd_ep_start_read>
    1d16:	8082                	ret

00001d18 <usbd_event_reset_handler>:
usbd_event_reset_handler():
E:/Project/PlumBL/CherryUSB/core/usbd_core.c:969
{
    1d18:	1101                	addi	sp,sp,-32
E:/Project/PlumBL/CherryUSB/core/usbd_core.c:970
    usbd_set_address(0);
    1d1a:	4501                	li	a0,0
E:/Project/PlumBL/CherryUSB/core/usbd_core.c:969
{
    1d1c:	ce06                	sw	ra,28(sp)
E:/Project/PlumBL/CherryUSB/core/usbd_core.c:970
    usbd_set_address(0);
    1d1e:	ccaff0ef          	jal	ra,11e8 <usbd_set_address>
E:/Project/PlumBL/CherryUSB/core/usbd_core.c:971
    usbd_core_cfg.configured = 0;
    1d22:	92019223          	sh	zero,-1756(gp) # 20000c94 <_edata+0x11c>
E:/Project/PlumBL/CherryUSB/core/usbd_core.c:981
    ep0_cfg.ep_addr = USB_CONTROL_IN_EP0;
    1d26:	004007b7          	lui	a5,0x400
    1d2a:	08078793          	addi	a5,a5,128 # 400080 <_data_lma+0x3fbe3c>
E:/Project/PlumBL/CherryUSB/core/usbd_core.c:982
    usbd_ep_open(&ep0_cfg);
    1d2e:	0028                	addi	a0,sp,8
E:/Project/PlumBL/CherryUSB/core/usbd_core.c:981
    ep0_cfg.ep_addr = USB_CONTROL_IN_EP0;
    1d30:	c43e                	sw	a5,8(sp)
E:/Project/PlumBL/CherryUSB/core/usbd_core.c:982
    usbd_ep_open(&ep0_cfg);
    1d32:	cd4ff0ef          	jal	ra,1206 <usbd_ep_open>
E:/Project/PlumBL/CherryUSB/core/usbd_core.c:985
    usbd_ep_open(&ep0_cfg);
    1d36:	0028                	addi	a0,sp,8
E:/Project/PlumBL/CherryUSB/core/usbd_core.c:984
    ep0_cfg.ep_addr = USB_CONTROL_OUT_EP0;
    1d38:	00010423          	sb	zero,8(sp)
E:/Project/PlumBL/CherryUSB/core/usbd_core.c:985
    usbd_ep_open(&ep0_cfg);
    1d3c:	ccaff0ef          	jal	ra,1206 <usbd_ep_open>
E:/Project/PlumBL/CherryUSB/core/usbd_core.c:987
    usbd_class_event_notify_handler(USBD_EVENT_RESET, NULL);
    1d40:	4581                	li	a1,0
    1d42:	4505                	li	a0,1
    1d44:	83bff0ef          	jal	ra,157e <usbd_class_event_notify_handler>
E:/Project/PlumBL/CherryUSB/core/usbd_core.c:988
}
    1d48:	40f2                	lw	ra,28(sp)
    1d4a:	6105                	addi	sp,sp,32
    1d4c:	8082                	ret

00001d4e <usbd_event_ep0_setup_complete_handler>:
usbd_event_ep0_setup_complete_handler():
E:/Project/PlumBL/CherryUSB/core/usbd_core.c:994
    memcpy(setup, psetup, 8);
    1d4e:	80818793          	addi	a5,gp,-2040 # 20000b78 <_edata>
E:/Project/PlumBL/CherryUSB/core/usbd_core.c:991
{
    1d52:	1141                	addi	sp,sp,-16
E:/Project/PlumBL/CherryUSB/core/usbd_core.c:994
    memcpy(setup, psetup, 8);
    1d54:	4621                	li	a2,8
    1d56:	85aa                	mv	a1,a0
    1d58:	853e                	mv	a0,a5
E:/Project/PlumBL/CherryUSB/core/usbd_core.c:991
{
    1d5a:	c422                	sw	s0,8(sp)
    1d5c:	c606                	sw	ra,12(sp)
E:/Project/PlumBL/CherryUSB/core/usbd_core.c:994
    memcpy(setup, psetup, 8);
    1d5e:	377000ef          	jal	ra,28d4 <memcpy>
E:/Project/PlumBL/CherryUSB/core/usbd_core.c:998
    if (setup->wLength > CONFIG_USBDEV_REQUEST_BUFFER_LEN) {
    1d62:	80e1d603          	lhu	a2,-2034(gp) # 20000b7e <_edata+0x6>
    1d66:	10000713          	li	a4,256
    1d6a:	842a                	mv	s0,a0
    1d6c:	02c77f63          	bgeu	a4,a2,1daa <usbd_event_ep0_setup_complete_handler+0x5c>
E:/Project/PlumBL/CherryUSB/core/usbd_core.c:999
        if ((setup->bmRequestType & USB_REQUEST_DIR_MASK) == USB_REQUEST_DIR_OUT) {
    1d70:	00050783          	lb	a5,0(a0)
    1d74:	0207cb63          	bltz	a5,1daa <usbd_event_ep0_setup_complete_handler+0x5c>
E:/Project/PlumBL/CherryUSB/core/usbd_core.c:1000
            USB_LOG_ERR("Request buffer too small\r\n");
    1d78:	00002517          	auipc	a0,0x2
    1d7c:	0b450513          	addi	a0,a0,180 # 3e2c <msc_flash_descriptor+0x88>
    1d80:	40b000ef          	jal	ra,298a <iprintf>
    1d84:	00002517          	auipc	a0,0x2
    1d88:	10050513          	addi	a0,a0,256 # 3e84 <msc_flash_descriptor+0xe0>
    1d8c:	51d000ef          	jal	ra,2aa8 <puts>
    1d90:	00002517          	auipc	a0,0x2
    1d94:	0c450513          	addi	a0,a0,196 # 3e54 <msc_flash_descriptor+0xb0>
    1d98:	3f3000ef          	jal	ra,298a <iprintf>
E:/Project/PlumBL/CherryUSB/core/usbd_core.c:1048
}
    1d9c:	4422                	lw	s0,8(sp)
    1d9e:	40b2                	lw	ra,12(sp)
E:/Project/PlumBL/CherryUSB/core/usbd_core.c:1020
        usbd_ep_set_stall(USB_CONTROL_IN_EP0);
    1da0:	08000513          	li	a0,128
E:/Project/PlumBL/CherryUSB/core/usbd_core.c:1048
}
    1da4:	0141                	addi	sp,sp,16
E:/Project/PlumBL/CherryUSB/core/usbd_core.c:1020
        usbd_ep_set_stall(USB_CONTROL_IN_EP0);
    1da6:	e60ff06f          	j	1406 <usbd_ep_set_stall>
E:/Project/PlumBL/CherryUSB/core/usbd_core.c:1006
    usbd_core_cfg.ep0_data_buf = usbd_core_cfg.req_data;
    1daa:	82418593          	addi	a1,gp,-2012 # 20000b94 <_edata+0x1c>
    1dae:	80b1a823          	sw	a1,-2032(gp) # 20000b80 <_edata+0x8>
E:/Project/PlumBL/CherryUSB/core/usbd_core.c:1007
    usbd_core_cfg.ep0_data_buf_residue = setup->wLength;
    1db2:	80c1aa23          	sw	a2,-2028(gp) # 20000b84 <_edata+0xc>
E:/Project/PlumBL/CherryUSB/core/usbd_core.c:1008
    usbd_core_cfg.ep0_data_buf_len = setup->wLength;
    1db6:	80c1ac23          	sw	a2,-2024(gp) # 20000b88 <_edata+0x10>
E:/Project/PlumBL/CherryUSB/core/usbd_core.c:1009
    usbd_core_cfg.zlp_flag = false;
    1dba:	80018e23          	sb	zero,-2020(gp) # 20000b8c <_edata+0x14>
E:/Project/PlumBL/CherryUSB/core/usbd_core.c:1012
    if (setup->wLength && ((setup->bmRequestType & USB_REQUEST_DIR_MASK) == USB_REQUEST_DIR_OUT)) {
    1dbe:	ca19                	beqz	a2,1dd4 <usbd_event_ep0_setup_complete_handler+0x86>
E:/Project/PlumBL/CherryUSB/core/usbd_core.c:1012 (discriminator 1)
    1dc0:	00040783          	lb	a5,0(s0)
    1dc4:	0007c863          	bltz	a5,1dd4 <usbd_event_ep0_setup_complete_handler+0x86>
E:/Project/PlumBL/CherryUSB/core/usbd_core.c:1048
}
    1dc8:	4422                	lw	s0,8(sp)
    1dca:	40b2                	lw	ra,12(sp)
E:/Project/PlumBL/CherryUSB/core/usbd_core.c:1014
        usbd_ep_start_read(USB_CONTROL_OUT_EP0, usbd_core_cfg.ep0_data_buf, setup->wLength);
    1dcc:	4501                	li	a0,0
E:/Project/PlumBL/CherryUSB/core/usbd_core.c:1048
}
    1dce:	0141                	addi	sp,sp,16
E:/Project/PlumBL/CherryUSB/core/usbd_core.c:1014
        usbd_ep_start_read(USB_CONTROL_OUT_EP0, usbd_core_cfg.ep0_data_buf, setup->wLength);
    1dd0:	dbaff06f          	j	138a <usbd_ep_start_read>
E:/Project/PlumBL/CherryUSB/core/usbd_core.c:1019
    if (!usbd_setup_request_handler(setup, &usbd_core_cfg.ep0_data_buf, &usbd_core_cfg.ep0_data_buf_len)) {
    1dd4:	8cfff0ef          	jal	ra,16a2 <usbd_setup_request_handler.constprop.3>
    1dd8:	d171                	beqz	a0,1d9c <usbd_event_ep0_setup_complete_handler+0x4e>
E:/Project/PlumBL/CherryUSB/core/usbd_core.c:1031
    usbd_core_cfg.ep0_data_buf_residue = MIN(usbd_core_cfg.ep0_data_buf_len, setup->wLength);
    1dda:	481c                	lw	a5,16(s0)
    1ddc:	80e1d603          	lhu	a2,-2034(gp) # 20000b7e <_edata+0x6>
    1de0:	00c7f363          	bgeu	a5,a2,1de6 <usbd_event_ep0_setup_complete_handler+0x98>
    1de4:	863e                	mv	a2,a5
    1de6:	80c1aa23          	sw	a2,-2028(gp) # 20000b84 <_edata+0xc>
E:/Project/PlumBL/CherryUSB/core/usbd_core.c:1032
    if (usbd_core_cfg.ep0_data_buf_residue > CONFIG_USBDEV_REQUEST_BUFFER_LEN) {
    1dea:	10000793          	li	a5,256
    1dee:	02c7f763          	bgeu	a5,a2,1e1c <usbd_event_ep0_setup_complete_handler+0xce>
E:/Project/PlumBL/CherryUSB/core/usbd_core.c:1033
        USB_LOG_ERR("Request buffer too small\r\n");
    1df2:	00002517          	auipc	a0,0x2
    1df6:	03a50513          	addi	a0,a0,58 # 3e2c <msc_flash_descriptor+0x88>
    1dfa:	391000ef          	jal	ra,298a <iprintf>
    1dfe:	00002517          	auipc	a0,0x2
    1e02:	08650513          	addi	a0,a0,134 # 3e84 <msc_flash_descriptor+0xe0>
    1e06:	4a3000ef          	jal	ra,2aa8 <puts>
E:/Project/PlumBL/CherryUSB/core/usbd_core.c:1048
}
    1e0a:	4422                	lw	s0,8(sp)
    1e0c:	40b2                	lw	ra,12(sp)
E:/Project/PlumBL/CherryUSB/core/usbd_core.c:1033
        USB_LOG_ERR("Request buffer too small\r\n");
    1e0e:	00002517          	auipc	a0,0x2
    1e12:	04650513          	addi	a0,a0,70 # 3e54 <msc_flash_descriptor+0xb0>
E:/Project/PlumBL/CherryUSB/core/usbd_core.c:1048
}
    1e16:	0141                	addi	sp,sp,16
E:/Project/PlumBL/CherryUSB/core/usbd_core.c:1033
        USB_LOG_ERR("Request buffer too small\r\n");
    1e18:	3730006f          	j	298a <iprintf>
E:/Project/PlumBL/CherryUSB/core/usbd_core.c:1038
    usbd_ep_start_write(USB_CONTROL_IN_EP0, usbd_core_cfg.ep0_data_buf, usbd_core_cfg.ep0_data_buf_residue);
    1e1c:	440c                	lw	a1,8(s0)
    1e1e:	08000513          	li	a0,128
    1e22:	ca2ff0ef          	jal	ra,12c4 <usbd_ep_start_write>
E:/Project/PlumBL/CherryUSB/core/usbd_core.c:1044
    if ((setup->wLength > usbd_core_cfg.ep0_data_buf_len) && (!(usbd_core_cfg.ep0_data_buf_len % USB_CTRL_EP_MPS))) {
    1e26:	481c                	lw	a5,16(s0)
    1e28:	80e1d703          	lhu	a4,-2034(gp) # 20000b7e <_edata+0x6>
    1e2c:	00e7f863          	bgeu	a5,a4,1e3c <usbd_event_ep0_setup_complete_handler+0xee>
E:/Project/PlumBL/CherryUSB/core/usbd_core.c:1044 (discriminator 1)
    1e30:	03f7f793          	andi	a5,a5,63
    1e34:	e781                	bnez	a5,1e3c <usbd_event_ep0_setup_complete_handler+0xee>
E:/Project/PlumBL/CherryUSB/core/usbd_core.c:1045
        usbd_core_cfg.zlp_flag = true;
    1e36:	4785                	li	a5,1
    1e38:	80f18e23          	sb	a5,-2020(gp) # 20000b8c <_edata+0x14>
E:/Project/PlumBL/CherryUSB/core/usbd_core.c:1048
}
    1e3c:	40b2                	lw	ra,12(sp)
    1e3e:	4422                	lw	s0,8(sp)
    1e40:	0141                	addi	sp,sp,16
    1e42:	8082                	ret

00001e44 <usbd_event_ep_in_complete_handler>:
usbd_event_ep_in_complete_handler():
E:/Project/PlumBL/CherryUSB/core/usbd_core.c:1115

void usbd_event_ep_in_complete_handler(uint8_t ep, uint32_t nbytes)
{
#ifndef CONFIG_USBDEV_TX_THREAD
    if (tx_msg[ep & 0x7f].cb) {
    1e44:	07f57793          	andi	a5,a0,127
    1e48:	4731                	li	a4,12
    1e4a:	02e78733          	mul	a4,a5,a4
    1e4e:	20001797          	auipc	a5,0x20001
    1e52:	a8a78793          	addi	a5,a5,-1398 # 200028d8 <tx_msg>
    1e56:	97ba                	add	a5,a5,a4
    1e58:	0087a303          	lw	t1,8(a5)
    1e5c:	00030363          	beqz	t1,1e62 <usbd_event_ep_in_complete_handler+0x1e>
E:/Project/PlumBL/CherryUSB/core/usbd_core.c:1116
        tx_msg[ep & 0x7f].cb(ep, nbytes);
    1e60:	8302                	jr	t1
E:/Project/PlumBL/CherryUSB/core/usbd_core.c:1122
    }
#else
    tx_msg[ep & 0x7f].nbytes = nbytes;
    usb_osal_mq_send(usbd_tx_mq, (uint32_t)&tx_msg[ep & 0x7f]);
#endif
}
    1e62:	8082                	ret

00001e64 <usbd_event_ep_out_complete_handler>:
usbd_event_ep_out_complete_handler():
E:/Project/PlumBL/CherryUSB/core/usbd_core.c:1127

void usbd_event_ep_out_complete_handler(uint8_t ep, uint32_t nbytes)
{
#ifndef CONFIG_USBDEV_RX_THREAD
    if (rx_msg[ep & 0x7f].cb) {
    1e64:	07f57793          	andi	a5,a0,127
    1e68:	4731                	li	a4,12
    1e6a:	02e78733          	mul	a4,a5,a4
    1e6e:	20001797          	auipc	a5,0x20001
    1e72:	a0a78793          	addi	a5,a5,-1526 # 20002878 <rx_msg>
    1e76:	97ba                	add	a5,a5,a4
    1e78:	0087a303          	lw	t1,8(a5)
    1e7c:	00030363          	beqz	t1,1e82 <usbd_event_ep_out_complete_handler+0x1e>
E:/Project/PlumBL/CherryUSB/core/usbd_core.c:1128
        rx_msg[ep & 0x7f].cb(ep, nbytes);
    1e80:	8302                	jr	t1
E:/Project/PlumBL/CherryUSB/core/usbd_core.c:1134
    }
#else
    rx_msg[ep & 0x7f].nbytes = nbytes;
    usb_osal_mq_send(usbd_rx_mq, (uint32_t)&rx_msg[ep & 0x7f]);
#endif
}
    1e82:	8082                	ret

00001e84 <usbd_desc_register>:
usbd_desc_register():
E:/Project/PlumBL/CherryUSB/core/usbd_core.c:1187
    rx_msg[0].cb = usbd_event_ep0_out_complete_handler;
}
#else
void usbd_desc_register(const uint8_t *desc)
{
    usbd_core_cfg.descriptors = desc;
    1e84:	80818793          	addi	a5,gp,-2040 # 20000b78 <_edata>
E:/Project/PlumBL/CherryUSB/core/usbd_core.c:1189
    usbd_core_cfg.intf_offset = 0;
    tx_msg[0].ep = 0x80;
    1e88:	f8000713          	li	a4,-128
E:/Project/PlumBL/CherryUSB/core/usbd_core.c:1187
    usbd_core_cfg.descriptors = desc;
    1e8c:	cf88                	sw	a0,24(a5)
E:/Project/PlumBL/CherryUSB/core/usbd_core.c:1188
    usbd_core_cfg.intf_offset = 0;
    1e8e:	10078fa3          	sb	zero,287(a5)
E:/Project/PlumBL/CherryUSB/core/usbd_core.c:1189
    tx_msg[0].ep = 0x80;
    1e92:	20001797          	auipc	a5,0x20001
    1e96:	a4678793          	addi	a5,a5,-1466 # 200028d8 <tx_msg>
    1e9a:	00e78023          	sb	a4,0(a5)
E:/Project/PlumBL/CherryUSB/core/usbd_core.c:1190
    tx_msg[0].cb = usbd_event_ep0_in_complete_handler;
    1e9e:	fffff717          	auipc	a4,0xfffff
    1ea2:	77c70713          	addi	a4,a4,1916 # 161a <usbd_event_ep0_in_complete_handler>
    1ea6:	c798                	sw	a4,8(a5)
E:/Project/PlumBL/CherryUSB/core/usbd_core.c:1191
    rx_msg[0].ep = 0x00;
    1ea8:	20001797          	auipc	a5,0x20001
    1eac:	9d078793          	addi	a5,a5,-1584 # 20002878 <rx_msg>
E:/Project/PlumBL/CherryUSB/core/usbd_core.c:1192
    rx_msg[0].cb = usbd_event_ep0_out_complete_handler;
    1eb0:	00000717          	auipc	a4,0x0
    1eb4:	e1870713          	addi	a4,a4,-488 # 1cc8 <usbd_event_ep0_out_complete_handler>
E:/Project/PlumBL/CherryUSB/core/usbd_core.c:1191
    rx_msg[0].ep = 0x00;
    1eb8:	00078023          	sb	zero,0(a5)
E:/Project/PlumBL/CherryUSB/core/usbd_core.c:1192
    rx_msg[0].cb = usbd_event_ep0_out_complete_handler;
    1ebc:	c798                	sw	a4,8(a5)
E:/Project/PlumBL/CherryUSB/core/usbd_core.c:1193
}
    1ebe:	8082                	ret

00001ec0 <usbd_add_interface>:
usbd_add_interface():
E:/Project/PlumBL/CherryUSB/core/usbd_core.c:1215
}
#endif

void usbd_add_interface(struct usbd_interface *intf)
{
    intf->intf_num = usbd_core_cfg.intf_offset;
    1ec0:	9271c783          	lbu	a5,-1753(gp) # 20000c97 <_edata+0x11f>
    1ec4:	00f50e23          	sb	a5,28(a0)
usb_slist_add_tail():
E:\Project\PlumBL\CherryUSB\common/usb_list.h:49
    l->next = n;
}

static inline void usb_slist_add_tail(usb_slist_t *l, usb_slist_t *n)
{
    usb_slist_t *tmp = l;
    1ec8:	20000717          	auipc	a4,0x20000
    1ecc:	e2c70713          	addi	a4,a4,-468 # 20001cf4 <usbd_intf_head>
E:\Project\PlumBL\CherryUSB\common/usb_list.h:51

    while (tmp->next) {
    1ed0:	4314                	lw	a3,0(a4)
    1ed2:	ea81                	bnez	a3,1ee2 <usbd_add_interface+0x22>
E:\Project\PlumBL\CherryUSB\common/usb_list.h:56
        tmp = tmp->next;
    }

    /* append the node to the tail */
    tmp->next = n;
    1ed4:	c308                	sw	a0,0(a4)
E:\Project\PlumBL\CherryUSB\common/usb_list.h:57
    n->next = NULL;
    1ed6:	00052023          	sw	zero,0(a0)
usbd_add_interface():
E:/Project/PlumBL/CherryUSB/core/usbd_core.c:1217
    usb_slist_add_tail(&usbd_intf_head, &intf->list);
    usbd_core_cfg.intf_offset++;
    1eda:	0785                	addi	a5,a5,1
    1edc:	92f183a3          	sb	a5,-1753(gp) # 20000c97 <_edata+0x11f>
E:/Project/PlumBL/CherryUSB/core/usbd_core.c:1218
}
    1ee0:	8082                	ret
usb_slist_add_tail():
E:\Project\PlumBL\CherryUSB\common/usb_list.h:51
    while (tmp->next) {
    1ee2:	8736                	mv	a4,a3
    1ee4:	b7f5                	j	1ed0 <usbd_add_interface+0x10>

00001ee6 <usbd_add_endpoint>:
usbd_add_endpoint():
E:/Project/PlumBL/CherryUSB/core/usbd_core.c:1222

void usbd_add_endpoint(struct usbd_endpoint *ep)
{
    if (ep->ep_addr & 0x80) {
    1ee6:	00054783          	lbu	a5,0(a0)
    1eea:	4150                	lw	a2,4(a0)
    1eec:	01879713          	slli	a4,a5,0x18
    1ef0:	8761                	srai	a4,a4,0x18
    1ef2:	02075063          	bgez	a4,1f12 <usbd_add_endpoint+0x2c>
E:/Project/PlumBL/CherryUSB/core/usbd_core.c:1223
        tx_msg[ep->ep_addr & 0x7f].ep = ep->ep_addr;
    1ef6:	07f7f713          	andi	a4,a5,127
    1efa:	46b1                	li	a3,12
    1efc:	02d706b3          	mul	a3,a4,a3
    1f00:	20001717          	auipc	a4,0x20001
    1f04:	9d870713          	addi	a4,a4,-1576 # 200028d8 <tx_msg>
E:/Project/PlumBL/CherryUSB/core/usbd_core.c:1226
        tx_msg[ep->ep_addr & 0x7f].cb = ep->ep_cb;
    } else {
        rx_msg[ep->ep_addr & 0x7f].ep = ep->ep_addr;
    1f08:	9736                	add	a4,a4,a3
    1f0a:	00f70023          	sb	a5,0(a4)
E:/Project/PlumBL/CherryUSB/core/usbd_core.c:1227
        rx_msg[ep->ep_addr & 0x7f].cb = ep->ep_cb;
    1f0e:	c710                	sw	a2,8(a4)
E:/Project/PlumBL/CherryUSB/core/usbd_core.c:1229
    }
}
    1f10:	8082                	ret
E:/Project/PlumBL/CherryUSB/core/usbd_core.c:1226
        rx_msg[ep->ep_addr & 0x7f].ep = ep->ep_addr;
    1f12:	4731                	li	a4,12
    1f14:	02e786b3          	mul	a3,a5,a4
    1f18:	20001717          	auipc	a4,0x20001
    1f1c:	96070713          	addi	a4,a4,-1696 # 20002878 <rx_msg>
    1f20:	b7e5                	j	1f08 <usbd_add_endpoint+0x22>

00001f22 <usb_device_is_configured>:
usb_device_is_configured():
E:/Project/PlumBL/CherryUSB/core/usbd_core.c:1234

bool usb_device_is_configured(void)
{
    return usbd_core_cfg.configured;
}
    1f22:	9241c503          	lbu	a0,-1756(gp) # 20000c94 <_edata+0x11c>
    1f26:	8082                	ret

00001f28 <usbd_initialize>:
usbd_initialize():
E:/Project/PlumBL/CherryUSB/core/usbd_core.c:1258
    usbd_rx_thread = usb_osal_thread_create("usbd_rx", CONFIG_USBDEV_RX_STACKSIZE, CONFIG_USBDEV_RX_PRIO, usbdev_rx_thread, NULL);
    if (usbd_rx_thread == NULL) {
        return -1;
    }
#endif
    return usb_dc_init();
    1f28:	d5eff06f          	j	1486 <usb_dc_init>

00001f2c <SCSI_SetSenseData>:
SCSI_SetSenseData():
E:/Project/PlumBL/CherryUSB/class/msc/usbd_msc.c:142
* @retval none

*/
static void SCSI_SetSenseData(uint32_t KCQ)
{
    usbd_msc_cfg.sKey = (uint8_t)(KCQ >> 16);
    1f2c:	1ffff797          	auipc	a5,0x1ffff
    1f30:	d6c78793          	addi	a5,a5,-660 # 20000c98 <usbd_msc_cfg>
    1f34:	01055713          	srli	a4,a0,0x10
E:/Project/PlumBL/CherryUSB/class/msc/usbd_msc.c:143
    usbd_msc_cfg.ASC = (uint8_t)(KCQ >> 8);
    1f38:	8121                	srli	a0,a0,0x8
E:/Project/PlumBL/CherryUSB/class/msc/usbd_msc.c:142
    usbd_msc_cfg.sKey = (uint8_t)(KCQ >> 16);
    1f3a:	02e78923          	sb	a4,50(a5)
E:/Project/PlumBL/CherryUSB/class/msc/usbd_msc.c:143
    usbd_msc_cfg.ASC = (uint8_t)(KCQ >> 8);
    1f3e:	02a789a3          	sb	a0,51(a5)
E:/Project/PlumBL/CherryUSB/class/msc/usbd_msc.c:144
    usbd_msc_cfg.ASQ = (uint8_t)(KCQ);
    1f42:	02078a23          	sb	zero,52(a5)
E:/Project/PlumBL/CherryUSB/class/msc/usbd_msc.c:145
}
    1f46:	8082                	ret

00001f48 <SCSI_processRead>:
SCSI_processRead():
E:/Project/PlumBL/CherryUSB/class/msc/usbd_msc.c:617
    return true;
}
#endif

static bool SCSI_processRead(void)
{
    1f48:	1141                	addi	sp,sp,-16
    1f4a:	c226                	sw	s1,4(sp)
E:/Project/PlumBL/CherryUSB/class/msc/usbd_msc.c:622
    uint32_t transfer_len;

    USB_LOG_DBG("read lba:%d\r\n", usbd_msc_cfg.start_sector);

    transfer_len = MIN(usbd_msc_cfg.nsectors * usbd_msc_cfg.scsi_blk_size, CONFIG_USBDEV_MSC_BLOCK_SIZE);
    1f4c:	1ffff497          	auipc	s1,0x1ffff
    1f50:	d4c48493          	addi	s1,s1,-692 # 20000c98 <usbd_msc_cfg>
    1f54:	5cdc                	lw	a5,60(s1)
E:/Project/PlumBL/CherryUSB/class/msc/usbd_msc.c:617
{
    1f56:	c422                	sw	s0,8(sp)
E:/Project/PlumBL/CherryUSB/class/msc/usbd_msc.c:622
    transfer_len = MIN(usbd_msc_cfg.nsectors * usbd_msc_cfg.scsi_blk_size, CONFIG_USBDEV_MSC_BLOCK_SIZE);
    1f58:	1ffff417          	auipc	s0,0x1ffff
    1f5c:	d8045403          	lhu	s0,-640(s0) # 20000cd8 <usbd_msc_cfg+0x40>
    1f60:	02f40433          	mul	s0,s0,a5
E:/Project/PlumBL/CherryUSB/class/msc/usbd_msc.c:617
{
    1f64:	c606                	sw	ra,12(sp)
E:/Project/PlumBL/CherryUSB/class/msc/usbd_msc.c:622
    transfer_len = MIN(usbd_msc_cfg.nsectors * usbd_msc_cfg.scsi_blk_size, CONFIG_USBDEV_MSC_BLOCK_SIZE);
    1f66:	6785                	lui	a5,0x1
    1f68:	0087f363          	bgeu	a5,s0,1f6e <SCSI_processRead+0x26>
    1f6c:	6405                	lui	s0,0x1
E:/Project/PlumBL/CherryUSB/class/msc/usbd_msc.c:624

    if (usbd_msc_sector_read(usbd_msc_cfg.start_sector, usbd_msc_cfg.block_buffer, transfer_len) != 0) {
    1f6e:	5c88                	lw	a0,56(s1)
    1f70:	8622                	mv	a2,s0
    1f72:	1ffff597          	auipc	a1,0x1ffff
    1f76:	d6e58593          	addi	a1,a1,-658 # 20000ce0 <usbd_msc_cfg+0x48>
    1f7a:	8bcff0ef          	jal	ra,1036 <usbd_msc_sector_read>
    1f7e:	cd01                	beqz	a0,1f96 <SCSI_processRead+0x4e>
E:/Project/PlumBL/CherryUSB/class/msc/usbd_msc.c:625
        SCSI_SetSenseData(SCSI_KCQHE_UREINRESERVEDAREA);
    1f80:	00041537          	lui	a0,0x41
    1f84:	10050513          	addi	a0,a0,256 # 41100 <_data_lma+0x3cebc>
    1f88:	3755                	jal	1f2c <SCSI_SetSenseData>
E:/Project/PlumBL/CherryUSB/class/msc/usbd_msc.c:626
        return false;
    1f8a:	4501                	li	a0,0
E:/Project/PlumBL/CherryUSB/class/msc/usbd_msc.c:640
    if (usbd_msc_cfg.nsectors == 0) {
        usbd_msc_cfg.stage = MSC_SEND_CSW;
    }

    return true;
}
    1f8c:	40b2                	lw	ra,12(sp)
    1f8e:	4422                	lw	s0,8(sp)
    1f90:	4492                	lw	s1,4(sp)
    1f92:	0141                	addi	sp,sp,16
    1f94:	8082                	ret
E:/Project/PlumBL/CherryUSB/class/msc/usbd_msc.c:629
    usbd_ep_start_write(mass_ep_data[MSD_IN_EP_IDX].ep_addr, usbd_msc_cfg.block_buffer, transfer_len);
    1f96:	8622                	mv	a2,s0
    1f98:	1ffff597          	auipc	a1,0x1ffff
    1f9c:	d4858593          	addi	a1,a1,-696 # 20000ce0 <usbd_msc_cfg+0x48>
    1fa0:	20001517          	auipc	a0,0x20001
    1fa4:	9a054503          	lbu	a0,-1632(a0) # 20002940 <mass_ep_data+0x8>
    1fa8:	b1cff0ef          	jal	ra,12c4 <usbd_ep_start_write>
E:/Project/PlumBL/CherryUSB/class/msc/usbd_msc.c:631
    usbd_msc_cfg.start_sector += (transfer_len / usbd_msc_cfg.scsi_blk_size);
    1fac:	1ffff797          	auipc	a5,0x1ffff
    1fb0:	d2c7d783          	lhu	a5,-724(a5) # 20000cd8 <usbd_msc_cfg+0x40>
    1fb4:	02f45733          	divu	a4,s0,a5
    1fb8:	5c9c                	lw	a5,56(s1)
E:/Project/PlumBL/CherryUSB/class/msc/usbd_msc.c:639
    return true;
    1fba:	4505                	li	a0,1
E:/Project/PlumBL/CherryUSB/class/msc/usbd_msc.c:631
    usbd_msc_cfg.start_sector += (transfer_len / usbd_msc_cfg.scsi_blk_size);
    1fbc:	97ba                	add	a5,a5,a4
    1fbe:	1ffff697          	auipc	a3,0x1ffff
    1fc2:	d0f6a923          	sw	a5,-750(a3) # 20000cd0 <usbd_msc_cfg+0x38>
E:/Project/PlumBL/CherryUSB/class/msc/usbd_msc.c:632
    usbd_msc_cfg.nsectors -= (transfer_len / usbd_msc_cfg.scsi_blk_size);
    1fc6:	5cdc                	lw	a5,60(s1)
    1fc8:	8f99                	sub	a5,a5,a4
    1fca:	1ffff717          	auipc	a4,0x1ffff
    1fce:	d0f72523          	sw	a5,-758(a4) # 20000cd4 <usbd_msc_cfg+0x3c>
E:/Project/PlumBL/CherryUSB/class/msc/usbd_msc.c:633
    usbd_msc_cfg.csw.dDataResidue -= transfer_len;
    1fd2:	54d8                	lw	a4,44(s1)
    1fd4:	40870433          	sub	s0,a4,s0
    1fd8:	1ffff717          	auipc	a4,0x1ffff
    1fdc:	ce872623          	sw	s0,-788(a4) # 20000cc4 <usbd_msc_cfg+0x2c>
E:/Project/PlumBL/CherryUSB/class/msc/usbd_msc.c:635
    if (usbd_msc_cfg.nsectors == 0) {
    1fe0:	f7d5                	bnez	a5,1f8c <SCSI_processRead+0x44>
E:/Project/PlumBL/CherryUSB/class/msc/usbd_msc.c:636
        usbd_msc_cfg.stage = MSC_SEND_CSW;
    1fe2:	478d                	li	a5,3
    1fe4:	1ffff717          	auipc	a4,0x1ffff
    1fe8:	caf72a23          	sw	a5,-844(a4) # 20000c98 <usbd_msc_cfg>
    1fec:	b745                	j	1f8c <SCSI_processRead+0x44>

00001fee <usbd_msc_send_csw>:
usbd_msc_send_csw():
E:/Project/PlumBL/CherryUSB/class/msc/usbd_msc.c:102
    usbd_msc_cfg.csw.dSignature = MSC_CSW_Signature;
    1fee:	53425737          	lui	a4,0x53425
    1ff2:	1ffff797          	auipc	a5,0x1ffff
    1ff6:	ca678793          	addi	a5,a5,-858 # 20000c98 <usbd_msc_cfg>
    1ffa:	35570713          	addi	a4,a4,853 # 53425355 <_eusrstack+0x3341d359>
    1ffe:	d3d8                	sw	a4,36(a5)
E:/Project/PlumBL/CherryUSB/class/msc/usbd_msc.c:103
    usbd_msc_cfg.csw.bStatus = CSW_Status;
    2000:	02a78823          	sb	a0,48(a5)
E:/Project/PlumBL/CherryUSB/class/msc/usbd_msc.c:108
    usbd_msc_cfg.stage = MSC_WAIT_CSW;
    2004:	4711                	li	a4,4
E:/Project/PlumBL/CherryUSB/class/msc/usbd_msc.c:111
    usbd_ep_start_write(mass_ep_data[MSD_IN_EP_IDX].ep_addr, (uint8_t *)&usbd_msc_cfg.csw, sizeof(struct CSW));
    2006:	4635                	li	a2,13
    2008:	1ffff597          	auipc	a1,0x1ffff
    200c:	cb458593          	addi	a1,a1,-844 # 20000cbc <usbd_msc_cfg+0x24>
    2010:	20001517          	auipc	a0,0x20001
    2014:	93054503          	lbu	a0,-1744(a0) # 20002940 <mass_ep_data+0x8>
E:/Project/PlumBL/CherryUSB/class/msc/usbd_msc.c:108
    usbd_msc_cfg.stage = MSC_WAIT_CSW;
    2018:	c398                	sw	a4,0(a5)
E:/Project/PlumBL/CherryUSB/class/msc/usbd_msc.c:111
    usbd_ep_start_write(mass_ep_data[MSD_IN_EP_IDX].ep_addr, (uint8_t *)&usbd_msc_cfg.csw, sizeof(struct CSW));
    201a:	aaaff06f          	j	12c4 <usbd_ep_start_write>

0000201e <msc_storage_class_interface_request_handler>:
msc_storage_class_interface_request_handler():
E:/Project/PlumBL/CherryUSB/class/msc/usbd_msc.c:57
    switch (setup->bRequest) {
    201e:	00154783          	lbu	a5,1(a0)
    2022:	0fe00713          	li	a4,254
    2026:	02e78063          	beq	a5,a4,2046 <msc_storage_class_interface_request_handler+0x28>
    202a:	0ff00713          	li	a4,255
    202e:	02e79663          	bne	a5,a4,205a <msc_storage_class_interface_request_handler+0x3c>
usbd_msc_reset():
E:/Project/PlumBL/CherryUSB/class/msc/usbd_msc.c:47
    usbd_msc_cfg.stage = MSC_READ_CBW;
    2032:	1ffff797          	auipc	a5,0x1ffff
    2036:	c607a323          	sw	zero,-922(a5) # 20000c98 <usbd_msc_cfg>
E:/Project/PlumBL/CherryUSB/class/msc/usbd_msc.c:48
    usbd_msc_cfg.readonly = false;
    203a:	1ffff797          	auipc	a5,0x1ffff
    203e:	c80787a3          	sb	zero,-881(a5) # 20000cc9 <usbd_msc_cfg+0x31>
msc_storage_class_interface_request_handler():
E:/Project/PlumBL/CherryUSB/class/msc/usbd_msc.c:72
    return 0;
    2042:	4501                	li	a0,0
E:/Project/PlumBL/CherryUSB/class/msc/usbd_msc.c:73
}
    2044:	8082                	ret
E:/Project/PlumBL/CherryUSB/class/msc/usbd_msc.c:63
            (*data)[0] = usbd_msc_cfg.max_lun;
    2046:	419c                	lw	a5,0(a1)
    2048:	1ffff717          	auipc	a4,0x1ffff
    204c:	c8574703          	lbu	a4,-891(a4) # 20000ccd <usbd_msc_cfg+0x35>
    2050:	00e78023          	sb	a4,0(a5)
E:/Project/PlumBL/CherryUSB/class/msc/usbd_msc.c:64
            *len = 1;
    2054:	4785                	li	a5,1
    2056:	c21c                	sw	a5,0(a2)
    2058:	b7ed                	j	2042 <msc_storage_class_interface_request_handler+0x24>
E:/Project/PlumBL/CherryUSB/class/msc/usbd_msc.c:52
{
    205a:	1141                	addi	sp,sp,-16
    205c:	c422                	sw	s0,8(sp)
    205e:	842a                	mv	s0,a0
E:/Project/PlumBL/CherryUSB/class/msc/usbd_msc.c:68
            USB_LOG_WRN("Unhandled MSC Class bRequest 0x%02x\r\n", setup->bRequest);
    2060:	00002517          	auipc	a0,0x2
    2064:	f7450513          	addi	a0,a0,-140 # 3fd4 <msc_flash_descriptor+0x230>
E:/Project/PlumBL/CherryUSB/class/msc/usbd_msc.c:52
{
    2068:	c606                	sw	ra,12(sp)
E:/Project/PlumBL/CherryUSB/class/msc/usbd_msc.c:68
            USB_LOG_WRN("Unhandled MSC Class bRequest 0x%02x\r\n", setup->bRequest);
    206a:	121000ef          	jal	ra,298a <iprintf>
    206e:	00144583          	lbu	a1,1(s0) # 1001 <uf2_write_block+0xa5>
    2072:	00002517          	auipc	a0,0x2
    2076:	0ee50513          	addi	a0,a0,238 # 4160 <msc_flash_descriptor+0x3bc>
    207a:	111000ef          	jal	ra,298a <iprintf>
    207e:	00002517          	auipc	a0,0x2
    2082:	dd650513          	addi	a0,a0,-554 # 3e54 <msc_flash_descriptor+0xb0>
    2086:	105000ef          	jal	ra,298a <iprintf>
E:/Project/PlumBL/CherryUSB/class/msc/usbd_msc.c:73
}
    208a:	40b2                	lw	ra,12(sp)
    208c:	4422                	lw	s0,8(sp)
E:/Project/PlumBL/CherryUSB/class/msc/usbd_msc.c:68
            USB_LOG_WRN("Unhandled MSC Class bRequest 0x%02x\r\n", setup->bRequest);
    208e:	557d                	li	a0,-1
E:/Project/PlumBL/CherryUSB/class/msc/usbd_msc.c:73
}
    2090:	0141                	addi	sp,sp,16
    2092:	8082                	ret

00002094 <mass_storage_bulk_in>:
mass_storage_bulk_in():
E:/Project/PlumBL/CherryUSB/class/msc/usbd_msc.c:780
    }
}

void mass_storage_bulk_in(uint8_t ep, uint32_t nbytes)
{
    switch (usbd_msc_cfg.stage) {
    2094:	1ffff797          	auipc	a5,0x1ffff
    2098:	c0478793          	addi	a5,a5,-1020 # 20000c98 <usbd_msc_cfg>
    209c:	439c                	lw	a5,0(a5)
    209e:	470d                	li	a4,3
    20a0:	02e78c63          	beq	a5,a4,20d8 <mass_storage_bulk_in+0x44>
    20a4:	4711                	li	a4,4
    20a6:	02e78b63          	beq	a5,a4,20dc <mass_storage_bulk_in+0x48>
    20aa:	4709                	li	a4,2
    20ac:	04e79a63          	bne	a5,a4,2100 <mass_storage_bulk_in+0x6c>
E:/Project/PlumBL/CherryUSB/class/msc/usbd_msc.c:782
        case MSC_DATA_IN:
            switch (usbd_msc_cfg.cbw.CB[0]) {
    20b0:	1ffff797          	auipc	a5,0x1ffff
    20b4:	bfb7c783          	lbu	a5,-1029(a5) # 20000cab <usbd_msc_cfg+0x13>
    20b8:	02800713          	li	a4,40
    20bc:	00e78663          	beq	a5,a4,20c8 <mass_storage_bulk_in+0x34>
    20c0:	0a800713          	li	a4,168
    20c4:	02e79e63          	bne	a5,a4,2100 <mass_storage_bulk_in+0x6c>
E:/Project/PlumBL/CherryUSB/class/msc/usbd_msc.c:779
{
    20c8:	1141                	addi	sp,sp,-16
    20ca:	c606                	sw	ra,12(sp)
E:/Project/PlumBL/CherryUSB/class/msc/usbd_msc.c:785
                case SCSI_CMD_READ10:
                case SCSI_CMD_READ12:
                    if (SCSI_processRead() == false) {
    20cc:	3db5                	jal	1f48 <SCSI_processRead>
    20ce:	e515                	bnez	a0,20fa <mass_storage_bulk_in+0x66>
E:/Project/PlumBL/CherryUSB/class/msc/usbd_msc.c:809
            break;

        default:
            break;
    }
}
    20d0:	40b2                	lw	ra,12(sp)
E:/Project/PlumBL/CherryUSB/class/msc/usbd_msc.c:786
                        usbd_msc_send_csw(CSW_STATUS_CMD_FAILED); /* send fail status to host,and the host will retry*/
    20d2:	4505                	li	a0,1
E:/Project/PlumBL/CherryUSB/class/msc/usbd_msc.c:809
}
    20d4:	0141                	addi	sp,sp,16
E:/Project/PlumBL/CherryUSB/class/msc/usbd_msc.c:796
            usbd_msc_send_csw(CSW_STATUS_CMD_PASSED);
    20d6:	bf21                	j	1fee <usbd_msc_send_csw>
    20d8:	4501                	li	a0,0
    20da:	bff5                	j	20d6 <mass_storage_bulk_in+0x42>
E:/Project/PlumBL/CherryUSB/class/msc/usbd_msc.c:801
            usbd_msc_cfg.stage = MSC_READ_CBW;
    20dc:	1ffff797          	auipc	a5,0x1ffff
    20e0:	ba07ae23          	sw	zero,-1092(a5) # 20000c98 <usbd_msc_cfg>
E:/Project/PlumBL/CherryUSB/class/msc/usbd_msc.c:803
            usbd_ep_start_read(mass_ep_data[MSD_OUT_EP_IDX].ep_addr, (uint8_t *)&usbd_msc_cfg.cbw, USB_SIZEOF_MSC_CBW);
    20e4:	467d                	li	a2,31
    20e6:	1ffff597          	auipc	a1,0x1ffff
    20ea:	bb658593          	addi	a1,a1,-1098 # 20000c9c <usbd_msc_cfg+0x4>
    20ee:	20001517          	auipc	a0,0x20001
    20f2:	84a54503          	lbu	a0,-1974(a0) # 20002938 <mass_ep_data>
    20f6:	a94ff06f          	j	138a <usbd_ep_start_read>
E:/Project/PlumBL/CherryUSB/class/msc/usbd_msc.c:809
}
    20fa:	40b2                	lw	ra,12(sp)
    20fc:	0141                	addi	sp,sp,16
    20fe:	8082                	ret
    2100:	8082                	ret

00002102 <msc_storage_notify_handler>:
msc_storage_notify_handler():
E:/Project/PlumBL/CherryUSB/class/msc/usbd_msc.c:77
    switch (event) {
    2102:	4785                	li	a5,1
    2104:	00f50663          	beq	a0,a5,2110 <msc_storage_notify_handler+0xe>
    2108:	479d                	li	a5,7
    210a:	00f50c63          	beq	a0,a5,2122 <msc_storage_notify_handler+0x20>
    210e:	8082                	ret
usbd_msc_reset():
E:/Project/PlumBL/CherryUSB/class/msc/usbd_msc.c:47
    usbd_msc_cfg.stage = MSC_READ_CBW;
    2110:	1ffff797          	auipc	a5,0x1ffff
    2114:	b807a423          	sw	zero,-1144(a5) # 20000c98 <usbd_msc_cfg>
E:/Project/PlumBL/CherryUSB/class/msc/usbd_msc.c:48
    usbd_msc_cfg.readonly = false;
    2118:	1ffff797          	auipc	a5,0x1ffff
    211c:	ba0788a3          	sb	zero,-1103(a5) # 20000cc9 <usbd_msc_cfg+0x31>
msc_storage_notify_handler():
E:/Project/PlumBL/CherryUSB/class/msc/usbd_msc.c:89
}
    2120:	8082                	ret
E:/Project/PlumBL/CherryUSB/class/msc/usbd_msc.c:83
            usbd_ep_start_read(mass_ep_data[MSD_OUT_EP_IDX].ep_addr, (uint8_t *)&usbd_msc_cfg.cbw, USB_SIZEOF_MSC_CBW);
    2122:	467d                	li	a2,31
    2124:	1ffff597          	auipc	a1,0x1ffff
    2128:	b7858593          	addi	a1,a1,-1160 # 20000c9c <usbd_msc_cfg+0x4>
    212c:	20001517          	auipc	a0,0x20001
    2130:	80c54503          	lbu	a0,-2036(a0) # 20002938 <mass_ep_data>
    2134:	a56ff06f          	j	138a <usbd_ep_start_read>

00002138 <mass_storage_bulk_out>:
mass_storage_bulk_out():
E:/Project/PlumBL/CherryUSB/class/msc/usbd_msc.c:752
{
    2138:	715d                	addi	sp,sp,-80
    213a:	c2a6                	sw	s1,68(sp)
E:/Project/PlumBL/CherryUSB/class/msc/usbd_msc.c:753
    switch (usbd_msc_cfg.stage) {
    213c:	1ffff497          	auipc	s1,0x1ffff
    2140:	b5c48493          	addi	s1,s1,-1188 # 20000c98 <usbd_msc_cfg>
    2144:	409c                	lw	a5,0(s1)
E:/Project/PlumBL/CherryUSB/class/msc/usbd_msc.c:752
{
    2146:	c4a2                	sw	s0,72(sp)
    2148:	c686                	sw	ra,76(sp)
    214a:	c0ca                	sw	s2,64(sp)
    214c:	842e                	mv	s0,a1
    214e:	cb91                	beqz	a5,2162 <mass_storage_bulk_out+0x2a>
    2150:	4705                	li	a4,1
    2152:	60e78463          	beq	a5,a4,275a <mass_storage_bulk_out+0x622>
E:/Project/PlumBL/CherryUSB/class/msc/usbd_msc.c:776
}
    2156:	40b6                	lw	ra,76(sp)
    2158:	4426                	lw	s0,72(sp)
    215a:	4496                	lw	s1,68(sp)
    215c:	4906                	lw	s2,64(sp)
    215e:	6161                	addi	sp,sp,80
    2160:	8082                	ret
SCSI_CBWDecode():
E:/Project/PlumBL/CherryUSB/class/msc/usbd_msc.c:672
    if (nbytes != sizeof(struct CBW)) {
    2162:	47fd                	li	a5,31
    2164:	02f58763          	beq	a1,a5,2192 <mass_storage_bulk_out+0x5a>
E:/Project/PlumBL/CherryUSB/class/msc/usbd_msc.c:673
        USB_LOG_ERR("size != sizeof(cbw)\r\n");
    2168:	00002517          	auipc	a0,0x2
    216c:	cc450513          	addi	a0,a0,-828 # 3e2c <msc_flash_descriptor+0x88>
    2170:	01b000ef          	jal	ra,298a <iprintf>
    2174:	00002517          	auipc	a0,0x2
    2178:	f5850513          	addi	a0,a0,-168 # 40cc <msc_flash_descriptor+0x328>
    217c:	12d000ef          	jal	ra,2aa8 <puts>
    2180:	00002517          	auipc	a0,0x2
    2184:	cd450513          	addi	a0,a0,-812 # 3e54 <msc_flash_descriptor+0xb0>
    2188:	003000ef          	jal	ra,298a <iprintf>
SCSI_modeSense10():
E:/Project/PlumBL/CherryUSB/class/msc/usbd_msc.c:364
        SCSI_SetSenseData(SCSI_KCQIR_INVALIDCOMMAND);
    218c:	00052537          	lui	a0,0x52
    2190:	acb1                	j	23ec <mass_storage_bulk_out+0x2b4>
SCSI_CBWDecode():
E:/Project/PlumBL/CherryUSB/class/msc/usbd_msc.c:678
    usbd_msc_cfg.csw.dTag = usbd_msc_cfg.cbw.dTag;
    2192:	449c                	lw	a5,8(s1)
E:/Project/PlumBL/CherryUSB/class/msc/usbd_msc.c:679
    usbd_msc_cfg.csw.dDataResidue = usbd_msc_cfg.cbw.dDataLength;
    2194:	44c0                	lw	s0,12(s1)
E:/Project/PlumBL/CherryUSB/class/msc/usbd_msc.c:678
    usbd_msc_cfg.csw.dTag = usbd_msc_cfg.cbw.dTag;
    2196:	1ffff717          	auipc	a4,0x1ffff
    219a:	b2f72523          	sw	a5,-1238(a4) # 20000cc0 <usbd_msc_cfg+0x28>
E:/Project/PlumBL/CherryUSB/class/msc/usbd_msc.c:679
    usbd_msc_cfg.csw.dDataResidue = usbd_msc_cfg.cbw.dDataLength;
    219e:	1ffff797          	auipc	a5,0x1ffff
    21a2:	b287a323          	sw	s0,-1242(a5) # 20000cc4 <usbd_msc_cfg+0x2c>
E:/Project/PlumBL/CherryUSB/class/msc/usbd_msc.c:681
    if ((usbd_msc_cfg.cbw.bLUN > 1) || (usbd_msc_cfg.cbw.dSignature != MSC_CBW_Signature) || (usbd_msc_cfg.cbw.bCBLength < 1) || (usbd_msc_cfg.cbw.bCBLength > 16)) {
    21a6:	1ffff717          	auipc	a4,0x1ffff
    21aa:	b0374703          	lbu	a4,-1277(a4) # 20000ca9 <usbd_msc_cfg+0x11>
    21ae:	4785                	li	a5,1
    21b0:	fce7eee3          	bltu	a5,a4,218c <mass_storage_bulk_out+0x54>
    21b4:	40d8                	lw	a4,4(s1)
    21b6:	434257b7          	lui	a5,0x43425
    21ba:	35578793          	addi	a5,a5,853 # 43425355 <_eusrstack+0x2341d359>
    21be:	fcf717e3          	bne	a4,a5,218c <mass_storage_bulk_out+0x54>
    21c2:	0124c783          	lbu	a5,18(s1)
    21c6:	473d                	li	a4,15
    21c8:	17fd                	addi	a5,a5,-1
    21ca:	0ff7f793          	andi	a5,a5,255
    21ce:	faf76fe3          	bltu	a4,a5,218c <mass_storage_bulk_out+0x54>
E:/Project/PlumBL/CherryUSB/class/msc/usbd_msc.c:686
        switch (usbd_msc_cfg.cbw.CB[0]) {
    21d2:	1ffff797          	auipc	a5,0x1ffff
    21d6:	ad97c783          	lbu	a5,-1319(a5) # 20000cab <usbd_msc_cfg+0x13>
    21da:	02300713          	li	a4,35
    21de:	2ce78e63          	beq	a5,a4,24ba <mass_storage_bulk_out+0x382>
    21e2:	06f76f63          	bltu	a4,a5,2260 <mass_storage_bulk_out+0x128>
    21e6:	4749                	li	a4,18
    21e8:	18e78163          	beq	a5,a4,236a <mass_storage_bulk_out+0x232>
    21ec:	02f76b63          	bltu	a4,a5,2222 <mass_storage_bulk_out+0xea>
    21f0:	28078063          	beqz	a5,2470 <mass_storage_bulk_out+0x338>
    21f4:	470d                	li	a4,3
    21f6:	10e78f63          	beq	a5,a4,2314 <mass_storage_bulk_out+0x1dc>
E:/Project/PlumBL/CherryUSB/class/msc/usbd_msc.c:732
                SCSI_SetSenseData(SCSI_KCQIR_INVALIDCOMMAND);
    21fa:	00052537          	lui	a0,0x52
    21fe:	333d                	jal	1f2c <SCSI_SetSenseData>
E:/Project/PlumBL/CherryUSB/class/msc/usbd_msc.c:733
                USB_LOG_WRN("unsupported cmd:0x%02x\r\n", usbd_msc_cfg.cbw.CB[0]);
    2200:	00002517          	auipc	a0,0x2
    2204:	dd450513          	addi	a0,a0,-556 # 3fd4 <msc_flash_descriptor+0x230>
    2208:	782000ef          	jal	ra,298a <iprintf>
    220c:	1ffff597          	auipc	a1,0x1ffff
    2210:	a9f5c583          	lbu	a1,-1377(a1) # 20000cab <usbd_msc_cfg+0x13>
    2214:	00002517          	auipc	a0,0x2
    2218:	f1450513          	addi	a0,a0,-236 # 4128 <msc_flash_descriptor+0x384>
    221c:	76e000ef          	jal	ra,298a <iprintf>
    2220:	ae41                	j	25b0 <mass_storage_bulk_out+0x478>
    2222:	476d                	li	a4,27
    2224:	24e78663          	beq	a5,a4,2470 <mass_storage_bulk_out+0x338>
    2228:	4779                	li	a4,30
    222a:	24e78363          	beq	a5,a4,2470 <mass_storage_bulk_out+0x338>
    222e:	4769                	li	a4,26
    2230:	fce795e3          	bne	a5,a4,21fa <mass_storage_bulk_out+0xc2>
SCSI_modeSense6():
E:/Project/PlumBL/CherryUSB/class/msc/usbd_msc.c:342
    if (usbd_msc_cfg.cbw.dDataLength == 0U) {
    2234:	dc21                	beqz	s0,218c <mass_storage_bulk_out+0x54>
E:/Project/PlumBL/CherryUSB/class/msc/usbd_msc.c:346
    if (usbd_msc_cfg.cbw.CB[4] < SCSIRESP_MODEPARAMETERHDR6_SIZEOF) {
    2236:	1ffff417          	auipc	s0,0x1ffff
    223a:	a7944403          	lbu	s0,-1415(s0) # 20000caf <usbd_msc_cfg+0x17>
    223e:	478d                	li	a5,3
    2240:	0087f363          	bgeu	a5,s0,2246 <mass_storage_bulk_out+0x10e>
E:/Project/PlumBL/CherryUSB/class/msc/usbd_msc.c:341
    uint8_t data_len = 4;
    2244:	4411                	li	s0,4
E:/Project/PlumBL/CherryUSB/class/msc/usbd_msc.c:350
    uint8_t sense6[SCSIRESP_MODEPARAMETERHDR6_SIZEOF] = { 0x03, 0x00, 0x00, 0x00 };
    2246:	478d                	li	a5,3
    2248:	ce3e                	sw	a5,28(sp)
E:/Project/PlumBL/CherryUSB/class/msc/usbd_msc.c:352
    if (usbd_msc_cfg.readonly) {
    224a:	1ffff797          	auipc	a5,0x1ffff
    224e:	a7f7c783          	lbu	a5,-1409(a5) # 20000cc9 <usbd_msc_cfg+0x31>
    2252:	10078463          	beqz	a5,235a <mass_storage_bulk_out+0x222>
E:/Project/PlumBL/CherryUSB/class/msc/usbd_msc.c:353
        sense6[2] = 0x80;
    2256:	f8000793          	li	a5,-128
    225a:	00f10f23          	sb	a5,30(sp)
E:/Project/PlumBL/CherryUSB/class/msc/usbd_msc.c:355
    memcpy(*data, (uint8_t *)sense6, data_len);
    225e:	a8f5                	j	235a <mass_storage_bulk_out+0x222>
    2260:	02f00713          	li	a4,47
    2264:	18e78563          	beq	a5,a4,23ee <mass_storage_bulk_out+0x2b6>
    2268:	06f76163          	bltu	a4,a5,22ca <mass_storage_bulk_out+0x192>
    226c:	02800713          	li	a4,40
    2270:	28e78e63          	beq	a5,a4,250c <mass_storage_bulk_out+0x3d4>
    2274:	02a00713          	li	a4,42
    2278:	3ce78463          	beq	a5,a4,2640 <mass_storage_bulk_out+0x508>
    227c:	02500713          	li	a4,37
    2280:	f6e79de3          	bne	a5,a4,21fa <mass_storage_bulk_out+0xc2>
SCSI_readCapacity10():
E:/Project/PlumBL/CherryUSB/class/msc/usbd_msc.c:436
    if (usbd_msc_cfg.cbw.dDataLength == 0U) {
    2284:	f00404e3          	beqz	s0,218c <mass_storage_bulk_out+0x54>
E:/Project/PlumBL/CherryUSB/class/msc/usbd_msc.c:441
    uint8_t capacity10[SCSIRESP_READCAPACITY10_SIZEOF] = {
    2288:	0404d703          	lhu	a4,64(s1)
E:/Project/PlumBL/CherryUSB/class/msc/usbd_msc.c:442
        (uint8_t)(((usbd_msc_cfg.scsi_blk_nbr - 1) >> 24) & 0xff),
    228c:	40fc                	lw	a5,68(s1)
E:/Project/PlumBL/CherryUSB/class/msc/usbd_msc.c:453
    memcpy(*data, (uint8_t *)capacity10, SCSIRESP_READCAPACITY10_SIZEOF);
    228e:	00011c23          	sh	zero,24(sp)
    2292:	00871693          	slli	a3,a4,0x8
E:/Project/PlumBL/CherryUSB/class/msc/usbd_msc.c:442
        (uint8_t)(((usbd_msc_cfg.scsi_blk_nbr - 1) >> 24) & 0xff),
    2296:	17fd                	addi	a5,a5,-1
E:/Project/PlumBL/CherryUSB/class/msc/usbd_msc.c:453
    memcpy(*data, (uint8_t *)capacity10, SCSIRESP_READCAPACITY10_SIZEOF);
    2298:	8321                	srli	a4,a4,0x8
    229a:	8f55                	or	a4,a4,a3
E:/Project/PlumBL/CherryUSB/class/msc/usbd_msc.c:442
        (uint8_t)(((usbd_msc_cfg.scsi_blk_nbr - 1) >> 24) & 0xff),
    229c:	0187d693          	srli	a3,a5,0x18
    22a0:	00d10a23          	sb	a3,20(sp)
E:/Project/PlumBL/CherryUSB/class/msc/usbd_msc.c:443
        (uint8_t)(((usbd_msc_cfg.scsi_blk_nbr - 1) >> 16) & 0xff),
    22a4:	0107d693          	srli	a3,a5,0x10
    22a8:	00d10aa3          	sb	a3,21(sp)
E:/Project/PlumBL/CherryUSB/class/msc/usbd_msc.c:444
        (uint8_t)(((usbd_msc_cfg.scsi_blk_nbr - 1) >> 8) & 0xff),
    22ac:	0087d693          	srli	a3,a5,0x8
    22b0:	00d10b23          	sb	a3,22(sp)
E:/Project/PlumBL/CherryUSB/class/msc/usbd_msc.c:453
    memcpy(*data, (uint8_t *)capacity10, SCSIRESP_READCAPACITY10_SIZEOF);
    22b4:	00f10ba3          	sb	a5,23(sp)
    22b8:	47d2                	lw	a5,20(sp)
    22ba:	00e11d23          	sh	a4,26(sp)
    22be:	1ffff717          	auipc	a4,0x1ffff
    22c2:	a2f72123          	sw	a5,-1502(a4) # 20000ce0 <usbd_msc_cfg+0x48>
    22c6:	47e2                	lw	a5,24(sp)
    22c8:	aa01                	j	23d8 <mass_storage_bulk_out+0x2a0>
    22ca:	0a800713          	li	a4,168
    22ce:	2ee78763          	beq	a5,a4,25bc <mass_storage_bulk_out+0x484>
    22d2:	0aa00713          	li	a4,170
    22d6:	40e78363          	beq	a5,a4,26dc <mass_storage_bulk_out+0x5a4>
    22da:	05a00713          	li	a4,90
    22de:	f0e79ee3          	bne	a5,a4,21fa <mass_storage_bulk_out+0xc2>
SCSI_modeSense10():
E:/Project/PlumBL/CherryUSB/class/msc/usbd_msc.c:363
    if (usbd_msc_cfg.cbw.dDataLength == 0U) {
    22e2:	ea0405e3          	beqz	s0,218c <mass_storage_bulk_out+0x54>
E:/Project/PlumBL/CherryUSB/class/msc/usbd_msc.c:368
    if (usbd_msc_cfg.cbw.CB[8] < 27) {
    22e6:	1ffff417          	auipc	s0,0x1ffff
    22ea:	9cd44403          	lbu	s0,-1587(s0) # 20000cb3 <usbd_msc_cfg+0x1b>
    22ee:	47e9                	li	a5,26
    22f0:	0087f363          	bgeu	a5,s0,22f6 <mass_storage_bulk_out+0x1be>
E:/Project/PlumBL/CherryUSB/class/msc/usbd_msc.c:362
    uint8_t data_len = 27;
    22f4:	446d                	li	s0,27
E:/Project/PlumBL/CherryUSB/class/msc/usbd_msc.c:372
    uint8_t sense10[27] = {
    22f6:	466d                	li	a2,27
    22f8:	4581                	li	a1,0
    22fa:	0868                	addi	a0,sp,28
    22fc:	883fe0ef          	jal	ra,b7e <memset>
    2300:	02600793          	li	a5,38
    2304:	00f10ea3          	sb	a5,29(sp)
    2308:	6785                	lui	a5,0x1
    230a:	20878793          	addi	a5,a5,520 # 1208 <usbd_ep_open+0x2>
    230e:	02f11223          	sh	a5,36(sp)
    2312:	a0a1                	j	235a <mass_storage_bulk_out+0x222>
SCSI_requestSense():
E:/Project/PlumBL/CherryUSB/class/msc/usbd_msc.c:166
    if (usbd_msc_cfg.cbw.dDataLength == 0U) {
    2314:	e6040ce3          	beqz	s0,218c <mass_storage_bulk_out+0x54>
E:/Project/PlumBL/CherryUSB/class/msc/usbd_msc.c:171
    if (usbd_msc_cfg.cbw.CB[4] < SCSIRESP_FIXEDSENSEDATA_SIZEOF) {
    2318:	1ffff417          	auipc	s0,0x1ffff
    231c:	99744403          	lbu	s0,-1641(s0) # 20000caf <usbd_msc_cfg+0x17>
    2320:	47c5                	li	a5,17
    2322:	0087f363          	bgeu	a5,s0,2328 <mass_storage_bulk_out+0x1f0>
E:/Project/PlumBL/CherryUSB/class/msc/usbd_msc.c:165
    uint8_t data_len = SCSIRESP_FIXEDSENSEDATA_SIZEOF;
    2326:	4449                	li	s0,18
E:/Project/PlumBL/CherryUSB/class/msc/usbd_msc.c:175
    uint8_t request_sense[SCSIRESP_FIXEDSENSEDATA_SIZEOF] = {
    2328:	ce02                	sw	zero,28(sp)
    232a:	07000793          	li	a5,112
    232e:	d002                	sw	zero,32(sp)
    2330:	00f10e23          	sb	a5,28(sp)
    2334:	47a9                	li	a5,10
    2336:	02f101a3          	sb	a5,35(sp)
E:/Project/PlumBL/CherryUSB/class/msc/usbd_msc.c:196
    request_sense[2] = usbd_msc_cfg.sKey;
    233a:	0324c783          	lbu	a5,50(s1)
E:/Project/PlumBL/CherryUSB/class/msc/usbd_msc.c:175
    uint8_t request_sense[SCSIRESP_FIXEDSENSEDATA_SIZEOF] = {
    233e:	d402                	sw	zero,40(sp)
    2340:	d202                	sw	zero,36(sp)
E:/Project/PlumBL/CherryUSB/class/msc/usbd_msc.c:196
    request_sense[2] = usbd_msc_cfg.sKey;
    2342:	00f10f23          	sb	a5,30(sp)
E:/Project/PlumBL/CherryUSB/class/msc/usbd_msc.c:197
    request_sense[12] = usbd_msc_cfg.ASC;
    2346:	0334c783          	lbu	a5,51(s1)
E:/Project/PlumBL/CherryUSB/class/msc/usbd_msc.c:175
    uint8_t request_sense[SCSIRESP_FIXEDSENSEDATA_SIZEOF] = {
    234a:	02011623          	sh	zero,44(sp)
E:/Project/PlumBL/CherryUSB/class/msc/usbd_msc.c:197
    request_sense[12] = usbd_msc_cfg.ASC;
    234e:	02f10423          	sb	a5,40(sp)
E:/Project/PlumBL/CherryUSB/class/msc/usbd_msc.c:198
    request_sense[13] = usbd_msc_cfg.ASQ;
    2352:	0344c783          	lbu	a5,52(s1)
    2356:	02f104a3          	sb	a5,41(sp)
SCSI_modeSense10():
E:/Project/PlumBL/CherryUSB/class/msc/usbd_msc.c:402
    memcpy(*data, (uint8_t *)sense10, data_len);
    235a:	8622                	mv	a2,s0
    235c:	086c                	addi	a1,sp,28
    235e:	1ffff517          	auipc	a0,0x1ffff
    2362:	98250513          	addi	a0,a0,-1662 # 20000ce0 <usbd_msc_cfg+0x48>
    2366:	23bd                	jal	28d4 <memcpy>
SCSI_CBWDecode():
E:/Project/PlumBL/CherryUSB/class/msc/usbd_msc.c:707
                break;
    2368:	a0a9                	j	23b2 <mass_storage_bulk_out+0x27a>
SCSI_inquiry():
E:/Project/PlumBL/CherryUSB/class/msc/usbd_msc.c:250
    uint8_t inquiry[SCSIRESP_INQUIRY_SIZEOF] = {
    236a:	02400613          	li	a2,36
    236e:	00002597          	auipc	a1,0x2
    2372:	8e658593          	addi	a1,a1,-1818 # 3c54 <_sbrk+0x30>
    2376:	0868                	addi	a0,sp,28
    2378:	2bb1                	jal	28d4 <memcpy>
E:/Project/PlumBL/CherryUSB/class/msc/usbd_msc.c:270
    memcpy(&inquiry[32], CONFIG_USBDEV_MSC_VERSION_STRING, strlen(CONFIG_USBDEV_MSC_VERSION_STRING));
    237a:	313037b7          	lui	a5,0x31303
    237e:	e3078793          	addi	a5,a5,-464 # 31302e30 <_eusrstack+0x112fae34>
    2382:	de3e                	sw	a5,60(sp)
E:/Project/PlumBL/CherryUSB/class/msc/usbd_msc.c:272
    if (usbd_msc_cfg.cbw.dDataLength == 0U) {
    2384:	e00404e3          	beqz	s0,218c <mass_storage_bulk_out+0x54>
E:/Project/PlumBL/CherryUSB/class/msc/usbd_msc.c:277
    if ((usbd_msc_cfg.cbw.CB[1] & 0x01U) != 0U) { /* Evpd is set */
    2388:	0144c783          	lbu	a5,20(s1)
    238c:	8b85                	andi	a5,a5,1
    238e:	c7f1                	beqz	a5,245a <mass_storage_bulk_out+0x322>
E:/Project/PlumBL/CherryUSB/class/msc/usbd_msc.c:278
        if (usbd_msc_cfg.cbw.CB[2] == 0U) {       /* Request for Supported Vital Product Data Pages*/
    2390:	1ffff797          	auipc	a5,0x1ffff
    2394:	91d7c783          	lbu	a5,-1763(a5) # 20000cad <usbd_msc_cfg+0x15>
    2398:	e395                	bnez	a5,23bc <mass_storage_bulk_out+0x284>
E:/Project/PlumBL/CherryUSB/class/msc/usbd_msc.c:280
            memcpy(*data, (uint8_t *)inquiry00, data_len);
    239a:	020007b7          	lui	a5,0x2000
    239e:	1ffff717          	auipc	a4,0x1ffff
    23a2:	94f72123          	sw	a5,-1726(a4) # 20000ce0 <usbd_msc_cfg+0x48>
    23a6:	77e1                	lui	a5,0xffff8
    23a8:	1ffff717          	auipc	a4,0x1ffff
    23ac:	92f71e23          	sh	a5,-1732(a4) # 20000ce4 <usbd_msc_cfg+0x4c>
E:/Project/PlumBL/CherryUSB/class/msc/usbd_msc.c:279
            data_len = 0x06;
    23b0:	4419                	li	s0,6
SCSI_CBWDecode():
E:/Project/PlumBL/CherryUSB/class/msc/usbd_msc.c:738
    if (ret) {
    23b2:	1ffff597          	auipc	a1,0x1ffff
    23b6:	92e58593          	addi	a1,a1,-1746 # 20000ce0 <usbd_msc_cfg+0x48>
    23ba:	a875                	j	2476 <mass_storage_bulk_out+0x33e>
SCSI_inquiry():
E:/Project/PlumBL/CherryUSB/class/msc/usbd_msc.c:281
        } else if (usbd_msc_cfg.cbw.CB[2] == 0x80U) { /* Request for VPD page 0x80 Unit Serial Number */
    23bc:	08000713          	li	a4,128
    23c0:	02e79263          	bne	a5,a4,23e4 <mass_storage_bulk_out+0x2ac>
E:/Project/PlumBL/CherryUSB/class/msc/usbd_msc.c:283
            memcpy(*data, (uint8_t *)inquiry80, data_len);
    23c4:	080087b7          	lui	a5,0x8008
    23c8:	1ffff717          	auipc	a4,0x1ffff
    23cc:	90f72c23          	sw	a5,-1768(a4) # 20000ce0 <usbd_msc_cfg+0x48>
    23d0:	202027b7          	lui	a5,0x20202
    23d4:	02078793          	addi	a5,a5,32 # 20202020 <_eusrstack+0x1fa024>
SCSI_readCapacity10():
E:/Project/PlumBL/CherryUSB/class/msc/usbd_msc.c:453
    memcpy(*data, (uint8_t *)capacity10, SCSIRESP_READCAPACITY10_SIZEOF);
    23d8:	1ffff717          	auipc	a4,0x1ffff
    23dc:	90f72623          	sw	a5,-1780(a4) # 20000ce4 <usbd_msc_cfg+0x4c>
E:/Project/PlumBL/CherryUSB/class/msc/usbd_msc.c:454
    *len = SCSIRESP_READCAPACITY10_SIZEOF;
    23e0:	4421                	li	s0,8
    23e2:	bfc1                	j	23b2 <mass_storage_bulk_out+0x27a>
SCSI_inquiry():
E:/Project/PlumBL/CherryUSB/class/msc/usbd_msc.c:285
            SCSI_SetSenseData(SCSI_KCQIR_INVALIDFIELDINCBA);
    23e4:	00052537          	lui	a0,0x52
    23e8:	40050513          	addi	a0,a0,1024 # 52400 <_data_lma+0x4e1bc>
SCSI_modeSense10():
E:/Project/PlumBL/CherryUSB/class/msc/usbd_msc.c:364
        SCSI_SetSenseData(SCSI_KCQIR_INVALIDCOMMAND);
    23ec:	3681                	jal	1f2c <SCSI_SetSenseData>
mass_storage_bulk_out():
E:/Project/PlumBL/CherryUSB/class/msc/usbd_msc.c:756
                USB_LOG_ERR("Command:0x%02x decode err\r\n", usbd_msc_cfg.cbw.CB[0]);
    23ee:	00002517          	auipc	a0,0x2
    23f2:	a3e50513          	addi	a0,a0,-1474 # 3e2c <msc_flash_descriptor+0x88>
    23f6:	2b51                	jal	298a <iprintf>
    23f8:	1ffff597          	auipc	a1,0x1ffff
    23fc:	8b35c583          	lbu	a1,-1869(a1) # 20000cab <usbd_msc_cfg+0x13>
    2400:	00002517          	auipc	a0,0x2
    2404:	d4450513          	addi	a0,a0,-700 # 4144 <msc_flash_descriptor+0x3a0>
    2408:	2349                	jal	298a <iprintf>
    240a:	00002517          	auipc	a0,0x2
    240e:	a4a50513          	addi	a0,a0,-1462 # 3e54 <msc_flash_descriptor+0xb0>
    2412:	2ba5                	jal	298a <iprintf>
usbd_msc_bot_abort():
E:/Project/PlumBL/CherryUSB/class/msc/usbd_msc.c:93
    if ((usbd_msc_cfg.cbw.bmFlags == 0) && (usbd_msc_cfg.cbw.dDataLength != 0)) {
    2414:	1ffff797          	auipc	a5,0x1ffff
    2418:	8947c783          	lbu	a5,-1900(a5) # 20000ca8 <usbd_msc_cfg+0x10>
    241c:	eb89                	bnez	a5,242e <mass_storage_bulk_out+0x2f6>
    241e:	44dc                	lw	a5,12(s1)
    2420:	c799                	beqz	a5,242e <mass_storage_bulk_out+0x2f6>
E:/Project/PlumBL/CherryUSB/class/msc/usbd_msc.c:94
        usbd_ep_set_stall(mass_ep_data[MSD_OUT_EP_IDX].ep_addr);
    2422:	20000517          	auipc	a0,0x20000
    2426:	51654503          	lbu	a0,1302(a0) # 20002938 <mass_ep_data>
    242a:	fddfe0ef          	jal	ra,1406 <usbd_ep_set_stall>
E:/Project/PlumBL/CherryUSB/class/msc/usbd_msc.c:96
    usbd_ep_set_stall(mass_ep_data[MSD_IN_EP_IDX].ep_addr);
    242e:	20000517          	auipc	a0,0x20000
    2432:	51254503          	lbu	a0,1298(a0) # 20002940 <mass_ep_data+0x8>
    2436:	fd1fe0ef          	jal	ra,1406 <usbd_ep_set_stall>
E:/Project/PlumBL/CherryUSB/class/msc/usbd_msc.c:97
    usbd_ep_start_read(mass_ep_data[0].ep_addr, (uint8_t *)&usbd_msc_cfg.cbw, USB_SIZEOF_MSC_CBW);
    243a:	467d                	li	a2,31
    243c:	1ffff597          	auipc	a1,0x1ffff
    2440:	86058593          	addi	a1,a1,-1952 # 20000c9c <usbd_msc_cfg+0x4>
mass_storage_bulk_out():
E:/Project/PlumBL/CherryUSB/class/msc/usbd_msc.c:776
}
    2444:	4426                	lw	s0,72(sp)
    2446:	40b6                	lw	ra,76(sp)
    2448:	4496                	lw	s1,68(sp)
    244a:	4906                	lw	s2,64(sp)
SCSI_processWrite():
E:/Project/PlumBL/CherryUSB/class/msc/usbd_msc.c:660
        usbd_ep_start_read(mass_ep_data[MSD_OUT_EP_IDX].ep_addr, usbd_msc_cfg.block_buffer, data_len);
    244c:	20000517          	auipc	a0,0x20000
    2450:	4ec54503          	lbu	a0,1260(a0) # 20002938 <mass_ep_data>
mass_storage_bulk_out():
E:/Project/PlumBL/CherryUSB/class/msc/usbd_msc.c:776
}
    2454:	6161                	addi	sp,sp,80
SCSI_processWrite():
E:/Project/PlumBL/CherryUSB/class/msc/usbd_msc.c:660
        usbd_ep_start_read(mass_ep_data[MSD_OUT_EP_IDX].ep_addr, usbd_msc_cfg.block_buffer, data_len);
    2456:	f35fe06f          	j	138a <usbd_ep_start_read>
SCSI_inquiry():
E:/Project/PlumBL/CherryUSB/class/msc/usbd_msc.c:289
        if (usbd_msc_cfg.cbw.CB[4] < SCSIRESP_INQUIRY_SIZEOF) {
    245a:	1ffff417          	auipc	s0,0x1ffff
    245e:	85544403          	lbu	s0,-1963(s0) # 20000caf <usbd_msc_cfg+0x17>
    2462:	02300793          	li	a5,35
    2466:	ee87fae3          	bgeu	a5,s0,235a <mass_storage_bulk_out+0x222>
E:/Project/PlumBL/CherryUSB/class/msc/usbd_msc.c:227
    uint8_t data_len = SCSIRESP_INQUIRY_SIZEOF;
    246a:	02400413          	li	s0,36
E:/Project/PlumBL/CherryUSB/class/msc/usbd_msc.c:292
        memcpy(*data, (uint8_t *)inquiry, data_len);
    246e:	b5f5                	j	235a <mass_storage_bulk_out+0x222>
SCSI_testUnitReady():
E:/Project/PlumBL/CherryUSB/class/msc/usbd_msc.c:158
    *data = NULL;
    2470:	4581                	li	a1,0
E:/Project/PlumBL/CherryUSB/class/msc/usbd_msc.c:154
    if (usbd_msc_cfg.cbw.dDataLength != 0U) {
    2472:	d0041de3          	bnez	s0,218c <mass_storage_bulk_out+0x54>
SCSI_CBWDecode():
E:/Project/PlumBL/CherryUSB/class/msc/usbd_msc.c:739
        if (usbd_msc_cfg.stage == MSC_READ_CBW) {
    2476:	409c                	lw	a5,0(s1)
    2478:	cc079fe3          	bnez	a5,2156 <mass_storage_bulk_out+0x1e>
E:/Project/PlumBL/CherryUSB/class/msc/usbd_msc.c:740
            if (len2send) {
    247c:	2c040763          	beqz	s0,274a <mass_storage_bulk_out+0x612>
usbd_msc_send_info():
E:/Project/PlumBL/CherryUSB/class/msc/usbd_msc.c:116
    size = MIN(size, usbd_msc_cfg.cbw.dDataLength);
    2480:	00c4a903          	lw	s2,12(s1)
    2484:	01247363          	bgeu	s0,s2,248a <mass_storage_bulk_out+0x352>
    2488:	8922                	mv	s2,s0
E:/Project/PlumBL/CherryUSB/class/msc/usbd_msc.c:121
    usbd_msc_cfg.stage = MSC_SEND_CSW;
    248a:	478d                	li	a5,3
E:/Project/PlumBL/CherryUSB/class/msc/usbd_msc.c:123
    usbd_ep_start_write(mass_ep_data[MSD_IN_EP_IDX].ep_addr, buffer, size);
    248c:	864a                	mv	a2,s2
    248e:	20000517          	auipc	a0,0x20000
    2492:	4b254503          	lbu	a0,1202(a0) # 20002940 <mass_ep_data+0x8>
E:/Project/PlumBL/CherryUSB/class/msc/usbd_msc.c:121
    usbd_msc_cfg.stage = MSC_SEND_CSW;
    2496:	1ffff717          	auipc	a4,0x1ffff
    249a:	80f72123          	sw	a5,-2046(a4) # 20000c98 <usbd_msc_cfg>
E:/Project/PlumBL/CherryUSB/class/msc/usbd_msc.c:123
    usbd_ep_start_write(mass_ep_data[MSD_IN_EP_IDX].ep_addr, buffer, size);
    249e:	e27fe0ef          	jal	ra,12c4 <usbd_ep_start_write>
E:/Project/PlumBL/CherryUSB/class/msc/usbd_msc.c:125
    usbd_msc_cfg.csw.dDataResidue -= size;
    24a2:	54dc                	lw	a5,44(s1)
    24a4:	41278933          	sub	s2,a5,s2
    24a8:	1ffff797          	auipc	a5,0x1ffff
    24ac:	8127ae23          	sw	s2,-2020(a5) # 20000cc4 <usbd_msc_cfg+0x2c>
E:/Project/PlumBL/CherryUSB/class/msc/usbd_msc.c:126
    usbd_msc_cfg.csw.bStatus = CSW_STATUS_CMD_PASSED;
    24b0:	1ffff797          	auipc	a5,0x1ffff
    24b4:	80078c23          	sb	zero,-2024(a5) # 20000cc8 <usbd_msc_cfg+0x30>
    24b8:	b979                	j	2156 <mass_storage_bulk_out+0x1e>
SCSI_readFormatCapacity():
E:/Project/PlumBL/CherryUSB/class/msc/usbd_msc.c:409
    if (usbd_msc_cfg.cbw.dDataLength == 0U) {
    24ba:	cc0409e3          	beqz	s0,218c <mass_storage_bulk_out+0x54>
E:/Project/PlumBL/CherryUSB/class/msc/usbd_msc.c:413
    uint8_t format_capacity[SCSIRESP_READFORMATCAPACITIES_SIZEOF] = {
    24be:	0444d783          	lhu	a5,68(s1)
    24c2:	0404d703          	lhu	a4,64(s1)
E:/Project/PlumBL/CherryUSB/class/msc/usbd_msc.c:429
    memcpy(*data, (uint8_t *)format_capacity, SCSIRESP_READFORMATCAPACITIES_SIZEOF);
    24c6:	086c                	addi	a1,sp,28
    24c8:	00879613          	slli	a2,a5,0x8
    24cc:	83a1                	srli	a5,a5,0x8
    24ce:	8e5d                	or	a2,a2,a5
E:/Project/PlumBL/CherryUSB/class/msc/usbd_msc.c:418
        (uint8_t)((usbd_msc_cfg.scsi_blk_nbr >> 24) & 0xff),
    24d0:	40fc                	lw	a5,68(s1)
E:/Project/PlumBL/CherryUSB/class/msc/usbd_msc.c:429
    memcpy(*data, (uint8_t *)format_capacity, SCSIRESP_READFORMATCAPACITIES_SIZEOF);
    24d2:	00871693          	slli	a3,a4,0x8
    24d6:	8321                	srli	a4,a4,0x8
    24d8:	8f55                	or	a4,a4,a3
    24da:	080006b7          	lui	a3,0x8000
    24de:	ce36                	sw	a3,28(sp)
E:/Project/PlumBL/CherryUSB/class/msc/usbd_msc.c:418
        (uint8_t)((usbd_msc_cfg.scsi_blk_nbr >> 24) & 0xff),
    24e0:	0187d693          	srli	a3,a5,0x18
E:/Project/PlumBL/CherryUSB/class/msc/usbd_msc.c:419
        (uint8_t)((usbd_msc_cfg.scsi_blk_nbr >> 16) & 0xff),
    24e4:	83c1                	srli	a5,a5,0x10
    24e6:	02f100a3          	sb	a5,33(sp)
E:/Project/PlumBL/CherryUSB/class/msc/usbd_msc.c:429
    memcpy(*data, (uint8_t *)format_capacity, SCSIRESP_READFORMATCAPACITIES_SIZEOF);
    24ea:	02c11123          	sh	a2,34(sp)
    24ee:	4789                	li	a5,2
    24f0:	4631                	li	a2,12
    24f2:	1fffe517          	auipc	a0,0x1fffe
    24f6:	7ee50513          	addi	a0,a0,2030 # 20000ce0 <usbd_msc_cfg+0x48>
E:/Project/PlumBL/CherryUSB/class/msc/usbd_msc.c:418
        (uint8_t)((usbd_msc_cfg.scsi_blk_nbr >> 24) & 0xff),
    24fa:	02d10023          	sb	a3,32(sp)
E:/Project/PlumBL/CherryUSB/class/msc/usbd_msc.c:429
    memcpy(*data, (uint8_t *)format_capacity, SCSIRESP_READFORMATCAPACITIES_SIZEOF);
    24fe:	02f11223          	sh	a5,36(sp)
    2502:	02e11323          	sh	a4,38(sp)
E:/Project/PlumBL/CherryUSB/class/msc/usbd_msc.c:430
    *len = SCSIRESP_READFORMATCAPACITIES_SIZEOF;
    2506:	4431                	li	s0,12
E:/Project/PlumBL/CherryUSB/class/msc/usbd_msc.c:429
    memcpy(*data, (uint8_t *)format_capacity, SCSIRESP_READFORMATCAPACITIES_SIZEOF);
    2508:	26f1                	jal	28d4 <memcpy>
E:/Project/PlumBL/CherryUSB/class/msc/usbd_msc.c:431
    return true;
    250a:	b565                	j	23b2 <mass_storage_bulk_out+0x27a>
SCSI_read10():
E:/Project/PlumBL/CherryUSB/class/msc/usbd_msc.c:460
    if (((usbd_msc_cfg.cbw.bmFlags & 0x80U) != 0x80U) || (usbd_msc_cfg.cbw.dDataLength == 0U)) {
    250c:	01048783          	lb	a5,16(s1)
    2510:	c607dee3          	bgez	a5,218c <mass_storage_bulk_out+0x54>
    2514:	c6040ce3          	beqz	s0,218c <mass_storage_bulk_out+0x54>
E:/Project/PlumBL/CherryUSB/class/msc/usbd_msc.c:465
    usbd_msc_cfg.start_sector = GET_BE32(&usbd_msc_cfg.cbw.CB[2]); /* Logical Block Address of First Block */
    2518:	1fffe797          	auipc	a5,0x1fffe
    251c:	7957c783          	lbu	a5,1941(a5) # 20000cad <usbd_msc_cfg+0x15>
    2520:	1fffe717          	auipc	a4,0x1fffe
    2524:	78e74703          	lbu	a4,1934(a4) # 20000cae <usbd_msc_cfg+0x16>
    2528:	0742                	slli	a4,a4,0x10
    252a:	07e2                	slli	a5,a5,0x18
    252c:	8fd9                	or	a5,a5,a4
    252e:	1fffe717          	auipc	a4,0x1fffe
    2532:	78274703          	lbu	a4,1922(a4) # 20000cb0 <usbd_msc_cfg+0x18>
    2536:	8fd9                	or	a5,a5,a4
    2538:	1fffe717          	auipc	a4,0x1fffe
    253c:	77774703          	lbu	a4,1911(a4) # 20000caf <usbd_msc_cfg+0x17>
    2540:	0722                	slli	a4,a4,0x8
E:/Project/PlumBL/CherryUSB/class/msc/usbd_msc.c:468
    usbd_msc_cfg.nsectors = GET_BE16(&usbd_msc_cfg.cbw.CB[7]); /* Number of Blocks to transfer */
    2542:	01a4d683          	lhu	a3,26(s1)
E:/Project/PlumBL/CherryUSB/class/msc/usbd_msc.c:465
    usbd_msc_cfg.start_sector = GET_BE32(&usbd_msc_cfg.cbw.CB[2]); /* Logical Block Address of First Block */
    2546:	8fd9                	or	a5,a5,a4
    2548:	1fffe717          	auipc	a4,0x1fffe
    254c:	78f72423          	sw	a5,1928(a4) # 20000cd0 <usbd_msc_cfg+0x38>
E:/Project/PlumBL/CherryUSB/class/msc/usbd_msc.c:468
    usbd_msc_cfg.nsectors = GET_BE16(&usbd_msc_cfg.cbw.CB[7]); /* Number of Blocks to transfer */
    2550:	00869713          	slli	a4,a3,0x8
    2554:	82a1                	srli	a3,a3,0x8
    2556:	8f55                	or	a4,a4,a3
    2558:	0742                	slli	a4,a4,0x10
    255a:	8341                	srli	a4,a4,0x10
    255c:	1fffe697          	auipc	a3,0x1fffe
    2560:	76e6ac23          	sw	a4,1912(a3) # 20000cd4 <usbd_msc_cfg+0x3c>
E:/Project/PlumBL/CherryUSB/class/msc/usbd_msc.c:471
    if ((usbd_msc_cfg.start_sector + usbd_msc_cfg.nsectors) > usbd_msc_cfg.scsi_blk_nbr) {
    2564:	40f4                	lw	a3,68(s1)
    2566:	97ba                	add	a5,a5,a4
    2568:	02f6f263          	bgeu	a3,a5,258c <mass_storage_bulk_out+0x454>
E:/Project/PlumBL/CherryUSB/class/msc/usbd_msc.c:472
        SCSI_SetSenseData(SCSI_KCQIR_LBAOUTOFRANGE);
    256c:	00052537          	lui	a0,0x52
    2570:	10050513          	addi	a0,a0,256 # 52100 <_data_lma+0x4debc>
    2574:	9b9ff0ef          	jal	ra,1f2c <SCSI_SetSenseData>
SCSI_write10():
E:/Project/PlumBL/CherryUSB/class/msc/usbd_msc.c:528
        USB_LOG_ERR("LBA out of range\r\n");
    2578:	00002517          	auipc	a0,0x2
    257c:	8b450513          	addi	a0,a0,-1868 # 3e2c <msc_flash_descriptor+0x88>
    2580:	2129                	jal	298a <iprintf>
    2582:	00002517          	auipc	a0,0x2
    2586:	b6250513          	addi	a0,a0,-1182 # 40e4 <msc_flash_descriptor+0x340>
    258a:	a015                	j	25ae <mass_storage_bulk_out+0x476>
SCSI_read10():
E:/Project/PlumBL/CherryUSB/class/msc/usbd_msc.c:477
    if (usbd_msc_cfg.cbw.dDataLength != (usbd_msc_cfg.nsectors * usbd_msc_cfg.scsi_blk_size)) {
    258c:	1fffe797          	auipc	a5,0x1fffe
    2590:	74c7d783          	lhu	a5,1868(a5) # 20000cd8 <usbd_msc_cfg+0x40>
    2594:	02e78733          	mul	a4,a5,a4
    2598:	08e40963          	beq	s0,a4,262a <mass_storage_bulk_out+0x4f2>
E:/Project/PlumBL/CherryUSB/class/msc/usbd_msc.c:478
        USB_LOG_ERR("scsi_blk_len does not match with dDataLength\r\n");
    259c:	00002517          	auipc	a0,0x2
    25a0:	89050513          	addi	a0,a0,-1904 # 3e2c <msc_flash_descriptor+0x88>
    25a4:	26dd                	jal	298a <iprintf>
    25a6:	00002517          	auipc	a0,0x2
    25aa:	b5250513          	addi	a0,a0,-1198 # 40f8 <msc_flash_descriptor+0x354>
SCSI_write10():
E:/Project/PlumBL/CherryUSB/class/msc/usbd_msc.c:528
        USB_LOG_ERR("LBA out of range\r\n");
    25ae:	29ed                	jal	2aa8 <puts>
SCSI_CBWDecode():
E:/Project/PlumBL/CherryUSB/class/msc/usbd_msc.c:733
                USB_LOG_WRN("unsupported cmd:0x%02x\r\n", usbd_msc_cfg.cbw.CB[0]);
    25b0:	00002517          	auipc	a0,0x2
    25b4:	8a450513          	addi	a0,a0,-1884 # 3e54 <msc_flash_descriptor+0xb0>
    25b8:	2ec9                	jal	298a <iprintf>
E:/Project/PlumBL/CherryUSB/class/msc/usbd_msc.c:738
    if (ret) {
    25ba:	bd15                	j	23ee <mass_storage_bulk_out+0x2b6>
SCSI_read12():
E:/Project/PlumBL/CherryUSB/class/msc/usbd_msc.c:487
    if (((usbd_msc_cfg.cbw.bmFlags & 0x80U) != 0x80U) || (usbd_msc_cfg.cbw.dDataLength == 0U)) {
    25bc:	01048783          	lb	a5,16(s1)
    25c0:	bc07d6e3          	bgez	a5,218c <mass_storage_bulk_out+0x54>
    25c4:	bc0404e3          	beqz	s0,218c <mass_storage_bulk_out+0x54>
E:/Project/PlumBL/CherryUSB/class/msc/usbd_msc.c:492
    usbd_msc_cfg.start_sector = GET_BE32(&usbd_msc_cfg.cbw.CB[2]); /* Logical Block Address of First Block */
    25c8:	1fffe797          	auipc	a5,0x1fffe
    25cc:	6e57c783          	lbu	a5,1765(a5) # 20000cad <usbd_msc_cfg+0x15>
    25d0:	1fffe717          	auipc	a4,0x1fffe
    25d4:	6de74703          	lbu	a4,1758(a4) # 20000cae <usbd_msc_cfg+0x16>
    25d8:	0742                	slli	a4,a4,0x10
    25da:	07e2                	slli	a5,a5,0x18
    25dc:	8fd9                	or	a5,a5,a4
    25de:	1fffe717          	auipc	a4,0x1fffe
    25e2:	6d274703          	lbu	a4,1746(a4) # 20000cb0 <usbd_msc_cfg+0x18>
    25e6:	8fd9                	or	a5,a5,a4
    25e8:	1fffe717          	auipc	a4,0x1fffe
    25ec:	6c774703          	lbu	a4,1735(a4) # 20000caf <usbd_msc_cfg+0x17>
    25f0:	0722                	slli	a4,a4,0x8
    25f2:	8fd9                	or	a5,a5,a4
    25f4:	1fffe717          	auipc	a4,0x1fffe
    25f8:	6cf72e23          	sw	a5,1756(a4) # 20000cd0 <usbd_msc_cfg+0x38>
E:/Project/PlumBL/CherryUSB/class/msc/usbd_msc.c:495
    usbd_msc_cfg.nsectors = GET_BE32(&usbd_msc_cfg.cbw.CB[6]); /* Number of Blocks to transfer */
    25fc:	1fffe717          	auipc	a4,0x1fffe
    2600:	6b574703          	lbu	a4,1717(a4) # 20000cb1 <usbd_msc_cfg+0x19>
    2604:	1fffe697          	auipc	a3,0x1fffe
    2608:	6ae6c683          	lbu	a3,1710(a3) # 20000cb2 <usbd_msc_cfg+0x1a>
    260c:	06c2                	slli	a3,a3,0x10
    260e:	0762                	slli	a4,a4,0x18
    2610:	8f55                	or	a4,a4,a3
    2612:	1fffe697          	auipc	a3,0x1fffe
    2616:	6a26c683          	lbu	a3,1698(a3) # 20000cb4 <usbd_msc_cfg+0x1c>
    261a:	8f55                	or	a4,a4,a3
    261c:	1fffe697          	auipc	a3,0x1fffe
    2620:	6976c683          	lbu	a3,1687(a3) # 20000cb3 <usbd_msc_cfg+0x1b>
    2624:	06a2                	slli	a3,a3,0x8
    2626:	8f55                	or	a4,a4,a3
    2628:	bf15                	j	255c <mass_storage_bulk_out+0x424>
E:/Project/PlumBL/CherryUSB/class/msc/usbd_msc.c:508
    usbd_msc_cfg.stage = MSC_DATA_IN;
    262a:	4789                	li	a5,2
    262c:	1fffe717          	auipc	a4,0x1fffe
    2630:	66f72623          	sw	a5,1644(a4) # 20000c98 <usbd_msc_cfg>
E:/Project/PlumBL/CherryUSB/class/msc/usbd_msc.c:509
    return SCSI_processRead();
    2634:	915ff0ef          	jal	ra,1f48 <SCSI_processRead>
SCSI_CBWDecode():
E:/Project/PlumBL/CherryUSB/class/msc/usbd_msc.c:669
    uint32_t len2send = 0;
    2638:	4401                	li	s0,0
E:/Project/PlumBL/CherryUSB/class/msc/usbd_msc.c:738
    if (ret) {
    263a:	d6051ce3          	bnez	a0,23b2 <mass_storage_bulk_out+0x27a>
    263e:	bb45                	j	23ee <mass_storage_bulk_out+0x2b6>
SCSI_write10():
E:/Project/PlumBL/CherryUSB/class/msc/usbd_msc.c:515
    if (((usbd_msc_cfg.cbw.bmFlags & 0x80U) != 0x00U) || (usbd_msc_cfg.cbw.dDataLength == 0U)) {
    2640:	01048783          	lb	a5,16(s1)
    2644:	b407c4e3          	bltz	a5,218c <mass_storage_bulk_out+0x54>
    2648:	b40402e3          	beqz	s0,218c <mass_storage_bulk_out+0x54>
E:/Project/PlumBL/CherryUSB/class/msc/usbd_msc.c:520
    usbd_msc_cfg.start_sector = GET_BE32(&usbd_msc_cfg.cbw.CB[2]); /* Logical Block Address of First Block */
    264c:	1fffe797          	auipc	a5,0x1fffe
    2650:	6617c783          	lbu	a5,1633(a5) # 20000cad <usbd_msc_cfg+0x15>
    2654:	1fffe717          	auipc	a4,0x1fffe
    2658:	65a74703          	lbu	a4,1626(a4) # 20000cae <usbd_msc_cfg+0x16>
    265c:	0742                	slli	a4,a4,0x10
    265e:	07e2                	slli	a5,a5,0x18
    2660:	8fd9                	or	a5,a5,a4
    2662:	1fffe717          	auipc	a4,0x1fffe
    2666:	64e74703          	lbu	a4,1614(a4) # 20000cb0 <usbd_msc_cfg+0x18>
    266a:	8fd9                	or	a5,a5,a4
    266c:	1fffe717          	auipc	a4,0x1fffe
    2670:	64374703          	lbu	a4,1603(a4) # 20000caf <usbd_msc_cfg+0x17>
    2674:	0722                	slli	a4,a4,0x8
E:/Project/PlumBL/CherryUSB/class/msc/usbd_msc.c:523
    usbd_msc_cfg.nsectors = GET_BE16(&usbd_msc_cfg.cbw.CB[7]); /* Number of Blocks to transfer */
    2676:	01a4d683          	lhu	a3,26(s1)
E:/Project/PlumBL/CherryUSB/class/msc/usbd_msc.c:520
    usbd_msc_cfg.start_sector = GET_BE32(&usbd_msc_cfg.cbw.CB[2]); /* Logical Block Address of First Block */
    267a:	8fd9                	or	a5,a5,a4
    267c:	1fffe717          	auipc	a4,0x1fffe
    2680:	64f72a23          	sw	a5,1620(a4) # 20000cd0 <usbd_msc_cfg+0x38>
E:/Project/PlumBL/CherryUSB/class/msc/usbd_msc.c:523
    usbd_msc_cfg.nsectors = GET_BE16(&usbd_msc_cfg.cbw.CB[7]); /* Number of Blocks to transfer */
    2684:	00869713          	slli	a4,a3,0x8
    2688:	82a1                	srli	a3,a3,0x8
    268a:	8f55                	or	a4,a4,a3
    268c:	0742                	slli	a4,a4,0x10
    268e:	8341                	srli	a4,a4,0x10
    2690:	1fffe697          	auipc	a3,0x1fffe
    2694:	64e6a223          	sw	a4,1604(a3) # 20000cd4 <usbd_msc_cfg+0x3c>
E:/Project/PlumBL/CherryUSB/class/msc/usbd_msc.c:526
    data_len = usbd_msc_cfg.nsectors * usbd_msc_cfg.scsi_blk_size;
    2698:	1fffe697          	auipc	a3,0x1fffe
    269c:	6406d683          	lhu	a3,1600(a3) # 20000cd8 <usbd_msc_cfg+0x40>
    26a0:	02e686b3          	mul	a3,a3,a4
E:/Project/PlumBL/CherryUSB/class/msc/usbd_msc.c:527
    if ((usbd_msc_cfg.start_sector + usbd_msc_cfg.nsectors) > usbd_msc_cfg.scsi_blk_nbr) {
    26a4:	97ba                	add	a5,a5,a4
    26a6:	40f8                	lw	a4,68(s1)
    26a8:	ecf768e3          	bltu	a4,a5,2578 <mass_storage_bulk_out+0x440>
SCSI_write12():
E:/Project/PlumBL/CherryUSB/class/msc/usbd_msc.c:561
    if (usbd_msc_cfg.cbw.dDataLength != data_len) {
    26ac:	d4d411e3          	bne	s0,a3,23ee <mass_storage_bulk_out+0x2b6>
E:/Project/PlumBL/CherryUSB/class/msc/usbd_msc.c:564
    usbd_msc_cfg.stage = MSC_DATA_OUT;
    26b0:	4785                	li	a5,1
    26b2:	1fffe717          	auipc	a4,0x1fffe
    26b6:	5ef72323          	sw	a5,1510(a4) # 20000c98 <usbd_msc_cfg>
E:/Project/PlumBL/CherryUSB/class/msc/usbd_msc.c:565
    data_len = MIN(data_len, CONFIG_USBDEV_MSC_BLOCK_SIZE);
    26ba:	6785                	lui	a5,0x1
    26bc:	8622                	mv	a2,s0
    26be:	0087f363          	bgeu	a5,s0,26c4 <mass_storage_bulk_out+0x58c>
    26c2:	6605                	lui	a2,0x1
E:/Project/PlumBL/CherryUSB/class/msc/usbd_msc.c:566
    usbd_ep_start_read(mass_ep_data[MSD_OUT_EP_IDX].ep_addr, usbd_msc_cfg.block_buffer, data_len);
    26c4:	1fffe597          	auipc	a1,0x1fffe
    26c8:	61c58593          	addi	a1,a1,1564 # 20000ce0 <usbd_msc_cfg+0x48>
    26cc:	20000517          	auipc	a0,0x20000
    26d0:	26c54503          	lbu	a0,620(a0) # 20002938 <mass_ep_data>
    26d4:	cb7fe0ef          	jal	ra,138a <usbd_ep_start_read>
SCSI_CBWDecode():
E:/Project/PlumBL/CherryUSB/class/msc/usbd_msc.c:669
    uint32_t len2send = 0;
    26d8:	4401                	li	s0,0
    26da:	b9e1                	j	23b2 <mass_storage_bulk_out+0x27a>
SCSI_write12():
E:/Project/PlumBL/CherryUSB/class/msc/usbd_msc.c:544
    if (((usbd_msc_cfg.cbw.bmFlags & 0x80U) != 0x00U) || (usbd_msc_cfg.cbw.dDataLength == 0U)) {
    26dc:	01048783          	lb	a5,16(s1)
    26e0:	aa07c6e3          	bltz	a5,218c <mass_storage_bulk_out+0x54>
    26e4:	aa0404e3          	beqz	s0,218c <mass_storage_bulk_out+0x54>
E:/Project/PlumBL/CherryUSB/class/msc/usbd_msc.c:549
    usbd_msc_cfg.start_sector = GET_BE32(&usbd_msc_cfg.cbw.CB[2]); /* Logical Block Address of First Block */
    26e8:	1fffe797          	auipc	a5,0x1fffe
    26ec:	5c57c783          	lbu	a5,1477(a5) # 20000cad <usbd_msc_cfg+0x15>
    26f0:	1fffe717          	auipc	a4,0x1fffe
    26f4:	5be74703          	lbu	a4,1470(a4) # 20000cae <usbd_msc_cfg+0x16>
    26f8:	0742                	slli	a4,a4,0x10
    26fa:	07e2                	slli	a5,a5,0x18
    26fc:	8fd9                	or	a5,a5,a4
    26fe:	1fffe717          	auipc	a4,0x1fffe
    2702:	5b274703          	lbu	a4,1458(a4) # 20000cb0 <usbd_msc_cfg+0x18>
    2706:	8fd9                	or	a5,a5,a4
    2708:	1fffe717          	auipc	a4,0x1fffe
    270c:	5a774703          	lbu	a4,1447(a4) # 20000caf <usbd_msc_cfg+0x17>
    2710:	0722                	slli	a4,a4,0x8
    2712:	8fd9                	or	a5,a5,a4
    2714:	1fffe717          	auipc	a4,0x1fffe
    2718:	5af72e23          	sw	a5,1468(a4) # 20000cd0 <usbd_msc_cfg+0x38>
E:/Project/PlumBL/CherryUSB/class/msc/usbd_msc.c:552
    usbd_msc_cfg.nsectors = GET_BE32(&usbd_msc_cfg.cbw.CB[6]); /* Number of Blocks to transfer */
    271c:	1fffe717          	auipc	a4,0x1fffe
    2720:	59574703          	lbu	a4,1429(a4) # 20000cb1 <usbd_msc_cfg+0x19>
    2724:	1fffe697          	auipc	a3,0x1fffe
    2728:	58e6c683          	lbu	a3,1422(a3) # 20000cb2 <usbd_msc_cfg+0x1a>
    272c:	06c2                	slli	a3,a3,0x10
    272e:	0762                	slli	a4,a4,0x18
    2730:	8f55                	or	a4,a4,a3
    2732:	1fffe697          	auipc	a3,0x1fffe
    2736:	5826c683          	lbu	a3,1410(a3) # 20000cb4 <usbd_msc_cfg+0x1c>
    273a:	8f55                	or	a4,a4,a3
    273c:	1fffe697          	auipc	a3,0x1fffe
    2740:	5776c683          	lbu	a3,1399(a3) # 20000cb3 <usbd_msc_cfg+0x1b>
    2744:	06a2                	slli	a3,a3,0x8
    2746:	8f55                	or	a4,a4,a3
    2748:	b7a1                	j	2690 <mass_storage_bulk_out+0x558>
SCSI_CBWDecode():
E:/Project/PlumBL/CherryUSB/class/msc/usbd_msc.c:744
                usbd_msc_send_csw(CSW_STATUS_CMD_PASSED);
    274a:	4501                	li	a0,0
mass_storage_bulk_out():
E:/Project/PlumBL/CherryUSB/class/msc/usbd_msc.c:776
}
    274c:	4426                	lw	s0,72(sp)
    274e:	40b6                	lw	ra,76(sp)
    2750:	4496                	lw	s1,68(sp)
    2752:	4906                	lw	s2,64(sp)
    2754:	6161                	addi	sp,sp,80
E:/Project/PlumBL/CherryUSB/class/msc/usbd_msc.c:766
                        usbd_msc_send_csw(CSW_STATUS_CMD_FAILED); /* send fail status to host,and the host will retry*/
    2756:	899ff06f          	j	1fee <usbd_msc_send_csw>
E:/Project/PlumBL/CherryUSB/class/msc/usbd_msc.c:762
            switch (usbd_msc_cfg.cbw.CB[0]) {
    275a:	1fffe797          	auipc	a5,0x1fffe
    275e:	5517c783          	lbu	a5,1361(a5) # 20000cab <usbd_msc_cfg+0x13>
    2762:	02a00713          	li	a4,42
    2766:	00e78663          	beq	a5,a4,2772 <mass_storage_bulk_out+0x63a>
    276a:	0aa00713          	li	a4,170
    276e:	9ee794e3          	bne	a5,a4,2156 <mass_storage_bulk_out+0x1e>
SCSI_processWrite():
E:/Project/PlumBL/CherryUSB/class/msc/usbd_msc.c:647
    if (usbd_msc_sector_write(usbd_msc_cfg.start_sector, usbd_msc_cfg.block_buffer, nbytes) != 0) {
    2772:	5c88                	lw	a0,56(s1)
    2774:	8622                	mv	a2,s0
    2776:	1fffe597          	auipc	a1,0x1fffe
    277a:	56a58593          	addi	a1,a1,1386 # 20000ce0 <usbd_msc_cfg+0x48>
    277e:	8d3fe0ef          	jal	ra,1050 <usbd_msc_sector_write>
    2782:	c909                	beqz	a0,2794 <mass_storage_bulk_out+0x65c>
E:/Project/PlumBL/CherryUSB/class/msc/usbd_msc.c:648
        SCSI_SetSenseData(SCSI_KCQHE_WRITEFAULT);
    2784:	00040537          	lui	a0,0x40
    2788:	30050513          	addi	a0,a0,768 # 40300 <_data_lma+0x3c0bc>
    278c:	fa0ff0ef          	jal	ra,1f2c <SCSI_SetSenseData>
mass_storage_bulk_out():
E:/Project/PlumBL/CherryUSB/class/msc/usbd_msc.c:766
                        usbd_msc_send_csw(CSW_STATUS_CMD_FAILED); /* send fail status to host,and the host will retry*/
    2790:	4505                	li	a0,1
    2792:	bf6d                	j	274c <mass_storage_bulk_out+0x614>
SCSI_processWrite():
E:/Project/PlumBL/CherryUSB/class/msc/usbd_msc.c:652
    usbd_msc_cfg.start_sector += (nbytes / usbd_msc_cfg.scsi_blk_size);
    2794:	1fffe617          	auipc	a2,0x1fffe
    2798:	54465603          	lhu	a2,1348(a2) # 20000cd8 <usbd_msc_cfg+0x40>
    279c:	02c456b3          	divu	a3,s0,a2
    27a0:	5c98                	lw	a4,56(s1)
    27a2:	9736                	add	a4,a4,a3
    27a4:	1fffe797          	auipc	a5,0x1fffe
    27a8:	52e7a623          	sw	a4,1324(a5) # 20000cd0 <usbd_msc_cfg+0x38>
E:/Project/PlumBL/CherryUSB/class/msc/usbd_msc.c:653
    usbd_msc_cfg.nsectors -= (nbytes / usbd_msc_cfg.scsi_blk_size);
    27ac:	5cdc                	lw	a5,60(s1)
    27ae:	8f95                	sub	a5,a5,a3
    27b0:	1fffe717          	auipc	a4,0x1fffe
    27b4:	52f72223          	sw	a5,1316(a4) # 20000cd4 <usbd_msc_cfg+0x3c>
E:/Project/PlumBL/CherryUSB/class/msc/usbd_msc.c:654
    usbd_msc_cfg.csw.dDataResidue -= nbytes;
    27b8:	54d8                	lw	a4,44(s1)
    27ba:	40870433          	sub	s0,a4,s0
    27be:	1fffe717          	auipc	a4,0x1fffe
    27c2:	50872323          	sw	s0,1286(a4) # 20000cc4 <usbd_msc_cfg+0x2c>
E:/Project/PlumBL/CherryUSB/class/msc/usbd_msc.c:656
    if (usbd_msc_cfg.nsectors == 0) {
    27c6:	d3d1                	beqz	a5,274a <mass_storage_bulk_out+0x612>
E:/Project/PlumBL/CherryUSB/class/msc/usbd_msc.c:659
        data_len = MIN(usbd_msc_cfg.nsectors * usbd_msc_cfg.scsi_blk_size, CONFIG_USBDEV_MSC_BLOCK_SIZE);
    27c8:	02f60633          	mul	a2,a2,a5
    27cc:	6785                	lui	a5,0x1
    27ce:	00c7f363          	bgeu	a5,a2,27d4 <mass_storage_bulk_out+0x69c>
    27d2:	6605                	lui	a2,0x1
E:/Project/PlumBL/CherryUSB/class/msc/usbd_msc.c:660
        usbd_ep_start_read(mass_ep_data[MSD_OUT_EP_IDX].ep_addr, usbd_msc_cfg.block_buffer, data_len);
    27d4:	1fffe597          	auipc	a1,0x1fffe
    27d8:	50c58593          	addi	a1,a1,1292 # 20000ce0 <usbd_msc_cfg+0x48>
    27dc:	b1a5                	j	2444 <mass_storage_bulk_out+0x30c>

000027de <usbd_msc_init_intf>:
usbd_msc_init_intf():
E:/Project/PlumBL/CherryUSB/class/msc/usbd_msc.c:812

struct usbd_interface *usbd_msc_init_intf(struct usbd_interface *intf, const uint8_t out_ep, const uint8_t in_ep)
{
    27de:	1141                	addi	sp,sp,-16
    27e0:	c606                	sw	ra,12(sp)
    27e2:	c422                	sw	s0,8(sp)
    27e4:	c226                	sw	s1,4(sp)
E:/Project/PlumBL/CherryUSB/class/msc/usbd_msc.c:813
    intf->class_interface_handler = msc_storage_class_interface_request_handler;
    27e6:	00000797          	auipc	a5,0x0
    27ea:	83878793          	addi	a5,a5,-1992 # 201e <msc_storage_class_interface_request_handler>
    27ee:	c15c                	sw	a5,4(a0)
E:/Project/PlumBL/CherryUSB/class/msc/usbd_msc.c:816
    intf->class_endpoint_handler = NULL;
    intf->vendor_handler = NULL;
    intf->notify_handler = msc_storage_notify_handler;
    27f0:	00000797          	auipc	a5,0x0
    27f4:	91278793          	addi	a5,a5,-1774 # 2102 <msc_storage_notify_handler>
    27f8:	c91c                	sw	a5,16(a0)
E:/Project/PlumBL/CherryUSB/class/msc/usbd_msc.c:818

    mass_ep_data[MSD_OUT_EP_IDX].ep_addr = out_ep;
    27fa:	20000797          	auipc	a5,0x20000
    27fe:	12b78f23          	sb	a1,318(a5) # 20002938 <mass_ep_data>
E:/Project/PlumBL/CherryUSB/class/msc/usbd_msc.c:814
    intf->class_endpoint_handler = NULL;
    2802:	00052423          	sw	zero,8(a0)
E:/Project/PlumBL/CherryUSB/class/msc/usbd_msc.c:819
    mass_ep_data[MSD_OUT_EP_IDX].ep_cb = mass_storage_bulk_out;
    2806:	00000797          	auipc	a5,0x0
    280a:	93278793          	addi	a5,a5,-1742 # 2138 <mass_storage_bulk_out>
    280e:	20000717          	auipc	a4,0x20000
    2812:	12f72723          	sw	a5,302(a4) # 2000293c <mass_ep_data+0x4>
E:/Project/PlumBL/CherryUSB/class/msc/usbd_msc.c:820
    mass_ep_data[MSD_IN_EP_IDX].ep_addr = in_ep;
    2816:	20000797          	auipc	a5,0x20000
    281a:	12c78523          	sb	a2,298(a5) # 20002940 <mass_ep_data+0x8>
E:/Project/PlumBL/CherryUSB/class/msc/usbd_msc.c:821
    mass_ep_data[MSD_IN_EP_IDX].ep_cb = mass_storage_bulk_in;
    281e:	00000797          	auipc	a5,0x0
    2822:	87678793          	addi	a5,a5,-1930 # 2094 <mass_storage_bulk_in>
E:/Project/PlumBL/CherryUSB/class/msc/usbd_msc.c:815
    intf->vendor_handler = NULL;
    2826:	00052623          	sw	zero,12(a0)
E:/Project/PlumBL/CherryUSB/class/msc/usbd_msc.c:812
{
    282a:	842a                	mv	s0,a0
E:/Project/PlumBL/CherryUSB/class/msc/usbd_msc.c:823

    usbd_add_endpoint(&mass_ep_data[MSD_OUT_EP_IDX]);
    282c:	20000517          	auipc	a0,0x20000
    2830:	10c50513          	addi	a0,a0,268 # 20002938 <mass_ep_data>
E:/Project/PlumBL/CherryUSB/class/msc/usbd_msc.c:821
    mass_ep_data[MSD_IN_EP_IDX].ep_cb = mass_storage_bulk_in;
    2834:	20000717          	auipc	a4,0x20000
    2838:	10f72823          	sw	a5,272(a4) # 20002944 <mass_ep_data+0xc>
E:/Project/PlumBL/CherryUSB/class/msc/usbd_msc.c:823
    usbd_add_endpoint(&mass_ep_data[MSD_OUT_EP_IDX]);
    283c:	eaaff0ef          	jal	ra,1ee6 <usbd_add_endpoint>
E:/Project/PlumBL/CherryUSB/class/msc/usbd_msc.c:824
    usbd_add_endpoint(&mass_ep_data[MSD_IN_EP_IDX]);
    2840:	20000517          	auipc	a0,0x20000
    2844:	10050513          	addi	a0,a0,256 # 20002940 <mass_ep_data+0x8>
    2848:	e9eff0ef          	jal	ra,1ee6 <usbd_add_endpoint>
E:/Project/PlumBL/CherryUSB/class/msc/usbd_msc.c:826

    memset((uint8_t *)&usbd_msc_cfg, 0, sizeof(struct usbd_msc_cfg_priv));
    284c:	6485                	lui	s1,0x1
    284e:	04848613          	addi	a2,s1,72 # 1048 <usbd_msc_sector_read+0x12>
    2852:	4581                	li	a1,0
    2854:	1fffe517          	auipc	a0,0x1fffe
    2858:	44450513          	addi	a0,a0,1092 # 20000c98 <usbd_msc_cfg>
    285c:	b22fe0ef          	jal	ra,b7e <memset>
E:/Project/PlumBL/CherryUSB/class/msc/usbd_msc.c:828

    usbd_msc_get_cap(0, &usbd_msc_cfg.scsi_blk_nbr, &usbd_msc_cfg.scsi_blk_size);
    2860:	1fffe617          	auipc	a2,0x1fffe
    2864:	47860613          	addi	a2,a2,1144 # 20000cd8 <usbd_msc_cfg+0x40>
    2868:	1fffe597          	auipc	a1,0x1fffe
    286c:	47458593          	addi	a1,a1,1140 # 20000cdc <usbd_msc_cfg+0x44>
    2870:	4501                	li	a0,0
    2872:	fb4fe0ef          	jal	ra,1026 <usbd_msc_get_cap>
E:/Project/PlumBL/CherryUSB/class/msc/usbd_msc.c:830

    if (usbd_msc_cfg.scsi_blk_size > CONFIG_USBDEV_MSC_BLOCK_SIZE) {
    2876:	1fffe797          	auipc	a5,0x1fffe
    287a:	4627d783          	lhu	a5,1122(a5) # 20000cd8 <usbd_msc_cfg+0x40>
    287e:	02f4f263          	bgeu	s1,a5,28a2 <usbd_msc_init_intf+0xc4>
E:/Project/PlumBL/CherryUSB/class/msc/usbd_msc.c:831
        USB_LOG_ERR("msc block buffer overflow\r\n");
    2882:	00001517          	auipc	a0,0x1
    2886:	5aa50513          	addi	a0,a0,1450 # 3e2c <msc_flash_descriptor+0x88>
    288a:	2201                	jal	298a <iprintf>
    288c:	00002517          	auipc	a0,0x2
    2890:	8fc50513          	addi	a0,a0,-1796 # 4188 <msc_flash_descriptor+0x3e4>
    2894:	2c11                	jal	2aa8 <puts>
    2896:	00001517          	auipc	a0,0x1
    289a:	5be50513          	addi	a0,a0,1470 # 3e54 <msc_flash_descriptor+0xb0>
    289e:	20f5                	jal	298a <iprintf>
E:/Project/PlumBL/CherryUSB/class/msc/usbd_msc.c:832
        return NULL;
    28a0:	4401                	li	s0,0
E:/Project/PlumBL/CherryUSB/class/msc/usbd_msc.c:836
    }

    return intf;
}
    28a2:	8522                	mv	a0,s0
    28a4:	40b2                	lw	ra,12(sp)
    28a6:	4422                	lw	s0,8(sp)
    28a8:	4492                	lw	s1,4(sp)
    28aa:	0141                	addi	sp,sp,16
    28ac:	8082                	ret

000028ae <memcmp>:
memcmp():
    28ae:	4701                	li	a4,0
    28b0:	00e61463          	bne	a2,a4,28b8 <memcmp+0xa>
    28b4:	4501                	li	a0,0
    28b6:	8082                	ret
    28b8:	00e507b3          	add	a5,a0,a4
    28bc:	0705                	addi	a4,a4,1
    28be:	00e586b3          	add	a3,a1,a4
    28c2:	0007c783          	lbu	a5,0(a5)
    28c6:	fff6c683          	lbu	a3,-1(a3)
    28ca:	fed783e3          	beq	a5,a3,28b0 <memcmp+0x2>
    28ce:	40d78533          	sub	a0,a5,a3
    28d2:	8082                	ret

000028d4 <memcpy>:
memcpy():
    28d4:	00a5c7b3          	xor	a5,a1,a0
    28d8:	8b8d                	andi	a5,a5,3
    28da:	00c50733          	add	a4,a0,a2
    28de:	e781                	bnez	a5,28e6 <memcpy+0x12>
    28e0:	478d                	li	a5,3
    28e2:	00c7ee63          	bltu	a5,a2,28fe <memcpy+0x2a>
    28e6:	87aa                	mv	a5,a0
    28e8:	0ae57063          	bgeu	a0,a4,2988 <memcpy+0xb4>
    28ec:	0005c683          	lbu	a3,0(a1)
    28f0:	0785                	addi	a5,a5,1
    28f2:	0585                	addi	a1,a1,1
    28f4:	fed78fa3          	sb	a3,-1(a5)
    28f8:	fee7eae3          	bltu	a5,a4,28ec <memcpy+0x18>
    28fc:	8082                	ret
    28fe:	00357693          	andi	a3,a0,3
    2902:	87aa                	mv	a5,a0
    2904:	ca91                	beqz	a3,2918 <memcpy+0x44>
    2906:	0005c683          	lbu	a3,0(a1)
    290a:	0785                	addi	a5,a5,1
    290c:	0585                	addi	a1,a1,1
    290e:	fed78fa3          	sb	a3,-1(a5)
    2912:	0037f693          	andi	a3,a5,3
    2916:	b7fd                	j	2904 <memcpy+0x30>
    2918:	ffc77693          	andi	a3,a4,-4
    291c:	fe068613          	addi	a2,a3,-32
    2920:	06c7f063          	bgeu	a5,a2,2980 <memcpy+0xac>
    2924:	0005a383          	lw	t2,0(a1)
    2928:	0045a283          	lw	t0,4(a1)
    292c:	0085af83          	lw	t6,8(a1)
    2930:	00c5af03          	lw	t5,12(a1)
    2934:	0105ae83          	lw	t4,16(a1)
    2938:	0145ae03          	lw	t3,20(a1)
    293c:	0185a303          	lw	t1,24(a1)
    2940:	01c5a883          	lw	a7,28(a1)
    2944:	02458593          	addi	a1,a1,36
    2948:	0077a023          	sw	t2,0(a5)
    294c:	ffc5a803          	lw	a6,-4(a1)
    2950:	0057a223          	sw	t0,4(a5)
    2954:	01f7a423          	sw	t6,8(a5)
    2958:	01e7a623          	sw	t5,12(a5)
    295c:	01d7a823          	sw	t4,16(a5)
    2960:	01c7aa23          	sw	t3,20(a5)
    2964:	0067ac23          	sw	t1,24(a5)
    2968:	0117ae23          	sw	a7,28(a5)
    296c:	02478793          	addi	a5,a5,36
    2970:	ff07ae23          	sw	a6,-4(a5)
    2974:	b775                	j	2920 <memcpy+0x4c>
    2976:	4190                	lw	a2,0(a1)
    2978:	0791                	addi	a5,a5,4
    297a:	0591                	addi	a1,a1,4
    297c:	fec7ae23          	sw	a2,-4(a5)
    2980:	fed7ebe3          	bltu	a5,a3,2976 <memcpy+0xa2>
    2984:	f6e7e4e3          	bltu	a5,a4,28ec <memcpy+0x18>
    2988:	8082                	ret

0000298a <iprintf>:
printf():
    298a:	7139                	addi	sp,sp,-64
    298c:	da3e                	sw	a5,52(sp)
    298e:	d22e                	sw	a1,36(sp)
    2990:	d432                	sw	a2,40(sp)
    2992:	d636                	sw	a3,44(sp)
    2994:	d83a                	sw	a4,48(sp)
    2996:	dc42                	sw	a6,56(sp)
    2998:	de46                	sw	a7,60(sp)
    299a:	1fffe797          	auipc	a5,0x1fffe
    299e:	1d678793          	addi	a5,a5,470 # 20000b70 <_impure_ptr>
    29a2:	cc22                	sw	s0,24(sp)
    29a4:	4380                	lw	s0,0(a5)
    29a6:	ca26                	sw	s1,20(sp)
    29a8:	ce06                	sw	ra,28(sp)
    29aa:	84aa                	mv	s1,a0
    29ac:	c409                	beqz	s0,29b6 <iprintf+0x2c>
    29ae:	4c1c                	lw	a5,24(s0)
    29b0:	e399                	bnez	a5,29b6 <iprintf+0x2c>
    29b2:	8522                	mv	a0,s0
    29b4:	2335                	jal	2ee0 <__sinit>
    29b6:	440c                	lw	a1,8(s0)
    29b8:	1054                	addi	a3,sp,36
    29ba:	8626                	mv	a2,s1
    29bc:	8522                	mv	a0,s0
    29be:	c636                	sw	a3,12(sp)
    29c0:	18f000ef          	jal	ra,334e <_vfiprintf_r>
    29c4:	40f2                	lw	ra,28(sp)
    29c6:	4462                	lw	s0,24(sp)
    29c8:	44d2                	lw	s1,20(sp)
    29ca:	6121                	addi	sp,sp,64
    29cc:	8082                	ret

000029ce <_puts_r>:
_puts_r():
    29ce:	1101                	addi	sp,sp,-32
    29d0:	ca26                	sw	s1,20(sp)
    29d2:	c84a                	sw	s2,16(sp)
    29d4:	ce06                	sw	ra,28(sp)
    29d6:	cc22                	sw	s0,24(sp)
    29d8:	c64e                	sw	s3,12(sp)
    29da:	c452                	sw	s4,8(sp)
    29dc:	84aa                	mv	s1,a0
    29de:	892e                	mv	s2,a1
    29e0:	c501                	beqz	a0,29e8 <_puts_r+0x1a>
    29e2:	4d1c                	lw	a5,24(a0)
    29e4:	e391                	bnez	a5,29e8 <_puts_r+0x1a>
    29e6:	29ed                	jal	2ee0 <__sinit>
    29e8:	4c9c                	lw	a5,24(s1)
    29ea:	4480                	lw	s0,8(s1)
    29ec:	e399                	bnez	a5,29f2 <_puts_r+0x24>
    29ee:	8526                	mv	a0,s1
    29f0:	29c5                	jal	2ee0 <__sinit>
    29f2:	00001797          	auipc	a5,0x1
    29f6:	7d278793          	addi	a5,a5,2002 # 41c4 <__sf_fake_stdin>
    29fa:	02f41c63          	bne	s0,a5,2a32 <_puts_r+0x64>
    29fe:	40c0                	lw	s0,4(s1)
    2a00:	00c45783          	lhu	a5,12(s0)
    2a04:	8ba1                	andi	a5,a5,8
    2a06:	c7b1                	beqz	a5,2a52 <_puts_r+0x84>
    2a08:	481c                	lw	a5,16(s0)
    2a0a:	c7a1                	beqz	a5,2a52 <_puts_r+0x84>
    2a0c:	59fd                	li	s3,-1
    2a0e:	4a29                	li	s4,10
    2a10:	441c                	lw	a5,8(s0)
    2a12:	00094583          	lbu	a1,0(s2)
    2a16:	17fd                	addi	a5,a5,-1
    2a18:	e9b1                	bnez	a1,2a6c <_puts_r+0x9e>
    2a1a:	c41c                	sw	a5,8(s0)
    2a1c:	0607de63          	bgez	a5,2a98 <_puts_r+0xca>
    2a20:	8622                	mv	a2,s0
    2a22:	45a9                	li	a1,10
    2a24:	8526                	mv	a0,s1
    2a26:	2841                	jal	2ab6 <__swbuf_r>
    2a28:	57fd                	li	a5,-1
    2a2a:	02f50863          	beq	a0,a5,2a5a <_puts_r+0x8c>
    2a2e:	4529                	li	a0,10
    2a30:	a035                	j	2a5c <_puts_r+0x8e>
    2a32:	00001797          	auipc	a5,0x1
    2a36:	7b278793          	addi	a5,a5,1970 # 41e4 <__sf_fake_stdout>
    2a3a:	00f41463          	bne	s0,a5,2a42 <_puts_r+0x74>
    2a3e:	4480                	lw	s0,8(s1)
    2a40:	b7c1                	j	2a00 <_puts_r+0x32>
    2a42:	00001797          	auipc	a5,0x1
    2a46:	76278793          	addi	a5,a5,1890 # 41a4 <__sf_fake_stderr>
    2a4a:	faf41be3          	bne	s0,a5,2a00 <_puts_r+0x32>
    2a4e:	44c0                	lw	s0,12(s1)
    2a50:	bf45                	j	2a00 <_puts_r+0x32>
    2a52:	85a2                	mv	a1,s0
    2a54:	8526                	mv	a0,s1
    2a56:	2205                	jal	2b76 <__swsetup_r>
    2a58:	d955                	beqz	a0,2a0c <_puts_r+0x3e>
    2a5a:	557d                	li	a0,-1
    2a5c:	40f2                	lw	ra,28(sp)
    2a5e:	4462                	lw	s0,24(sp)
    2a60:	44d2                	lw	s1,20(sp)
    2a62:	4942                	lw	s2,16(sp)
    2a64:	49b2                	lw	s3,12(sp)
    2a66:	4a22                	lw	s4,8(sp)
    2a68:	6105                	addi	sp,sp,32
    2a6a:	8082                	ret
    2a6c:	c41c                	sw	a5,8(s0)
    2a6e:	0905                	addi	s2,s2,1
    2a70:	0007d763          	bgez	a5,2a7e <_puts_r+0xb0>
    2a74:	4c18                	lw	a4,24(s0)
    2a76:	00e7cb63          	blt	a5,a4,2a8c <_puts_r+0xbe>
    2a7a:	01458963          	beq	a1,s4,2a8c <_puts_r+0xbe>
    2a7e:	401c                	lw	a5,0(s0)
    2a80:	00178713          	addi	a4,a5,1
    2a84:	c018                	sw	a4,0(s0)
    2a86:	00b78023          	sb	a1,0(a5)
    2a8a:	b759                	j	2a10 <_puts_r+0x42>
    2a8c:	8622                	mv	a2,s0
    2a8e:	8526                	mv	a0,s1
    2a90:	201d                	jal	2ab6 <__swbuf_r>
    2a92:	f7351fe3          	bne	a0,s3,2a10 <_puts_r+0x42>
    2a96:	b7d1                	j	2a5a <_puts_r+0x8c>
    2a98:	401c                	lw	a5,0(s0)
    2a9a:	00178713          	addi	a4,a5,1
    2a9e:	c018                	sw	a4,0(s0)
    2aa0:	4729                	li	a4,10
    2aa2:	00e78023          	sb	a4,0(a5)
    2aa6:	b761                	j	2a2e <_puts_r+0x60>

00002aa8 <puts>:
puts():
    2aa8:	1fffe797          	auipc	a5,0x1fffe
    2aac:	0c878793          	addi	a5,a5,200 # 20000b70 <_impure_ptr>
    2ab0:	85aa                	mv	a1,a0
    2ab2:	4388                	lw	a0,0(a5)
    2ab4:	bf29                	j	29ce <_puts_r>

00002ab6 <__swbuf_r>:
__swbuf_r():
    2ab6:	1101                	addi	sp,sp,-32
    2ab8:	cc22                	sw	s0,24(sp)
    2aba:	ca26                	sw	s1,20(sp)
    2abc:	c84a                	sw	s2,16(sp)
    2abe:	ce06                	sw	ra,28(sp)
    2ac0:	c64e                	sw	s3,12(sp)
    2ac2:	84aa                	mv	s1,a0
    2ac4:	892e                	mv	s2,a1
    2ac6:	8432                	mv	s0,a2
    2ac8:	c501                	beqz	a0,2ad0 <__swbuf_r+0x1a>
    2aca:	4d1c                	lw	a5,24(a0)
    2acc:	e391                	bnez	a5,2ad0 <__swbuf_r+0x1a>
    2ace:	2909                	jal	2ee0 <__sinit>
    2ad0:	00001797          	auipc	a5,0x1
    2ad4:	6f478793          	addi	a5,a5,1780 # 41c4 <__sf_fake_stdin>
    2ad8:	06f41963          	bne	s0,a5,2b4a <__swbuf_r+0x94>
    2adc:	40c0                	lw	s0,4(s1)
    2ade:	4c1c                	lw	a5,24(s0)
    2ae0:	c41c                	sw	a5,8(s0)
    2ae2:	00c45783          	lhu	a5,12(s0)
    2ae6:	8ba1                	andi	a5,a5,8
    2ae8:	c3c9                	beqz	a5,2b6a <__swbuf_r+0xb4>
    2aea:	481c                	lw	a5,16(s0)
    2aec:	cfbd                	beqz	a5,2b6a <__swbuf_r+0xb4>
    2aee:	481c                	lw	a5,16(s0)
    2af0:	4008                	lw	a0,0(s0)
    2af2:	0ff97993          	andi	s3,s2,255
    2af6:	0ff97913          	andi	s2,s2,255
    2afa:	8d1d                	sub	a0,a0,a5
    2afc:	485c                	lw	a5,20(s0)
    2afe:	00f54663          	blt	a0,a5,2b0a <__swbuf_r+0x54>
    2b02:	85a2                	mv	a1,s0
    2b04:	8526                	mv	a0,s1
    2b06:	2c75                	jal	2dc2 <_fflush_r>
    2b08:	e52d                	bnez	a0,2b72 <__swbuf_r+0xbc>
    2b0a:	441c                	lw	a5,8(s0)
    2b0c:	0505                	addi	a0,a0,1
    2b0e:	17fd                	addi	a5,a5,-1
    2b10:	c41c                	sw	a5,8(s0)
    2b12:	401c                	lw	a5,0(s0)
    2b14:	00178713          	addi	a4,a5,1
    2b18:	c018                	sw	a4,0(s0)
    2b1a:	01378023          	sb	s3,0(a5)
    2b1e:	485c                	lw	a5,20(s0)
    2b20:	00a78963          	beq	a5,a0,2b32 <__swbuf_r+0x7c>
    2b24:	00c45783          	lhu	a5,12(s0)
    2b28:	8b85                	andi	a5,a5,1
    2b2a:	cb81                	beqz	a5,2b3a <__swbuf_r+0x84>
    2b2c:	47a9                	li	a5,10
    2b2e:	00f91663          	bne	s2,a5,2b3a <__swbuf_r+0x84>
    2b32:	85a2                	mv	a1,s0
    2b34:	8526                	mv	a0,s1
    2b36:	2471                	jal	2dc2 <_fflush_r>
    2b38:	ed0d                	bnez	a0,2b72 <__swbuf_r+0xbc>
    2b3a:	40f2                	lw	ra,28(sp)
    2b3c:	4462                	lw	s0,24(sp)
    2b3e:	854a                	mv	a0,s2
    2b40:	44d2                	lw	s1,20(sp)
    2b42:	4942                	lw	s2,16(sp)
    2b44:	49b2                	lw	s3,12(sp)
    2b46:	6105                	addi	sp,sp,32
    2b48:	8082                	ret
    2b4a:	00001797          	auipc	a5,0x1
    2b4e:	69a78793          	addi	a5,a5,1690 # 41e4 <__sf_fake_stdout>
    2b52:	00f41463          	bne	s0,a5,2b5a <__swbuf_r+0xa4>
    2b56:	4480                	lw	s0,8(s1)
    2b58:	b759                	j	2ade <__swbuf_r+0x28>
    2b5a:	00001797          	auipc	a5,0x1
    2b5e:	64a78793          	addi	a5,a5,1610 # 41a4 <__sf_fake_stderr>
    2b62:	f6f41ee3          	bne	s0,a5,2ade <__swbuf_r+0x28>
    2b66:	44c0                	lw	s0,12(s1)
    2b68:	bf9d                	j	2ade <__swbuf_r+0x28>
    2b6a:	85a2                	mv	a1,s0
    2b6c:	8526                	mv	a0,s1
    2b6e:	2021                	jal	2b76 <__swsetup_r>
    2b70:	dd3d                	beqz	a0,2aee <__swbuf_r+0x38>
    2b72:	597d                	li	s2,-1
    2b74:	b7d9                	j	2b3a <__swbuf_r+0x84>

00002b76 <__swsetup_r>:
__swsetup_r():
    2b76:	1141                	addi	sp,sp,-16
    2b78:	1fffe797          	auipc	a5,0x1fffe
    2b7c:	ff878793          	addi	a5,a5,-8 # 20000b70 <_impure_ptr>
    2b80:	c226                	sw	s1,4(sp)
    2b82:	4384                	lw	s1,0(a5)
    2b84:	c422                	sw	s0,8(sp)
    2b86:	c04a                	sw	s2,0(sp)
    2b88:	c606                	sw	ra,12(sp)
    2b8a:	892a                	mv	s2,a0
    2b8c:	842e                	mv	s0,a1
    2b8e:	c489                	beqz	s1,2b98 <__swsetup_r+0x22>
    2b90:	4c9c                	lw	a5,24(s1)
    2b92:	e399                	bnez	a5,2b98 <__swsetup_r+0x22>
    2b94:	8526                	mv	a0,s1
    2b96:	26a9                	jal	2ee0 <__sinit>
    2b98:	00001797          	auipc	a5,0x1
    2b9c:	62c78793          	addi	a5,a5,1580 # 41c4 <__sf_fake_stdin>
    2ba0:	02f41c63          	bne	s0,a5,2bd8 <__swsetup_r+0x62>
    2ba4:	40c0                	lw	s0,4(s1)
    2ba6:	00c41703          	lh	a4,12(s0)
    2baa:	01071793          	slli	a5,a4,0x10
    2bae:	83c1                	srli	a5,a5,0x10
    2bb0:	0087f693          	andi	a3,a5,8
    2bb4:	eeb5                	bnez	a3,2c30 <__swsetup_r+0xba>
    2bb6:	0107f693          	andi	a3,a5,16
    2bba:	ee9d                	bnez	a3,2bf8 <__swsetup_r+0x82>
    2bbc:	47a5                	li	a5,9
    2bbe:	00f92023          	sw	a5,0(s2)
    2bc2:	04076713          	ori	a4,a4,64
    2bc6:	00e41623          	sh	a4,12(s0)
    2bca:	557d                	li	a0,-1
    2bcc:	40b2                	lw	ra,12(sp)
    2bce:	4422                	lw	s0,8(sp)
    2bd0:	4492                	lw	s1,4(sp)
    2bd2:	4902                	lw	s2,0(sp)
    2bd4:	0141                	addi	sp,sp,16
    2bd6:	8082                	ret
    2bd8:	00001797          	auipc	a5,0x1
    2bdc:	60c78793          	addi	a5,a5,1548 # 41e4 <__sf_fake_stdout>
    2be0:	00f41463          	bne	s0,a5,2be8 <__swsetup_r+0x72>
    2be4:	4480                	lw	s0,8(s1)
    2be6:	b7c1                	j	2ba6 <__swsetup_r+0x30>
    2be8:	00001797          	auipc	a5,0x1
    2bec:	5bc78793          	addi	a5,a5,1468 # 41a4 <__sf_fake_stderr>
    2bf0:	faf41be3          	bne	s0,a5,2ba6 <__swsetup_r+0x30>
    2bf4:	44c0                	lw	s0,12(s1)
    2bf6:	bf45                	j	2ba6 <__swsetup_r+0x30>
    2bf8:	8b91                	andi	a5,a5,4
    2bfa:	c78d                	beqz	a5,2c24 <__swsetup_r+0xae>
    2bfc:	584c                	lw	a1,52(s0)
    2bfe:	c989                	beqz	a1,2c10 <__swsetup_r+0x9a>
    2c00:	04440793          	addi	a5,s0,68
    2c04:	00f58463          	beq	a1,a5,2c0c <__swsetup_r+0x96>
    2c08:	854a                	mv	a0,s2
    2c0a:	2391                	jal	314e <_free_r>
    2c0c:	02042a23          	sw	zero,52(s0)
    2c10:	00c45783          	lhu	a5,12(s0)
    2c14:	00042223          	sw	zero,4(s0)
    2c18:	fdb7f793          	andi	a5,a5,-37
    2c1c:	00f41623          	sh	a5,12(s0)
    2c20:	481c                	lw	a5,16(s0)
    2c22:	c01c                	sw	a5,0(s0)
    2c24:	00c45783          	lhu	a5,12(s0)
    2c28:	0087e793          	ori	a5,a5,8
    2c2c:	00f41623          	sh	a5,12(s0)
    2c30:	481c                	lw	a5,16(s0)
    2c32:	ef81                	bnez	a5,2c4a <__swsetup_r+0xd4>
    2c34:	00c45783          	lhu	a5,12(s0)
    2c38:	20000713          	li	a4,512
    2c3c:	2807f793          	andi	a5,a5,640
    2c40:	00e78563          	beq	a5,a4,2c4a <__swsetup_r+0xd4>
    2c44:	85a2                	mv	a1,s0
    2c46:	854a                	mv	a0,s2
    2c48:	21a5                	jal	30b0 <__smakebuf_r>
    2c4a:	00c45783          	lhu	a5,12(s0)
    2c4e:	0017f713          	andi	a4,a5,1
    2c52:	c705                	beqz	a4,2c7a <__swsetup_r+0x104>
    2c54:	485c                	lw	a5,20(s0)
    2c56:	00042423          	sw	zero,8(s0)
    2c5a:	40f007b3          	neg	a5,a5
    2c5e:	cc1c                	sw	a5,24(s0)
    2c60:	481c                	lw	a5,16(s0)
    2c62:	4501                	li	a0,0
    2c64:	f7a5                	bnez	a5,2bcc <__swsetup_r+0x56>
    2c66:	00c41783          	lh	a5,12(s0)
    2c6a:	0807f713          	andi	a4,a5,128
    2c6e:	df39                	beqz	a4,2bcc <__swsetup_r+0x56>
    2c70:	0407e793          	ori	a5,a5,64
    2c74:	00f41623          	sh	a5,12(s0)
    2c78:	bf89                	j	2bca <__swsetup_r+0x54>
    2c7a:	8b89                	andi	a5,a5,2
    2c7c:	4701                	li	a4,0
    2c7e:	e391                	bnez	a5,2c82 <__swsetup_r+0x10c>
    2c80:	4858                	lw	a4,20(s0)
    2c82:	c418                	sw	a4,8(s0)
    2c84:	bff1                	j	2c60 <__swsetup_r+0xea>

00002c86 <__sflush_r>:
__sflush_r():
    2c86:	00c5d783          	lhu	a5,12(a1)
    2c8a:	1101                	addi	sp,sp,-32
    2c8c:	cc22                	sw	s0,24(sp)
    2c8e:	ca26                	sw	s1,20(sp)
    2c90:	ce06                	sw	ra,28(sp)
    2c92:	c84a                	sw	s2,16(sp)
    2c94:	c64e                	sw	s3,12(sp)
    2c96:	0087f713          	andi	a4,a5,8
    2c9a:	84aa                	mv	s1,a0
    2c9c:	842e                	mv	s0,a1
    2c9e:	ef71                	bnez	a4,2d7a <__sflush_r+0xf4>
    2ca0:	41d8                	lw	a4,4(a1)
    2ca2:	00e04d63          	bgtz	a4,2cbc <__sflush_r+0x36>
    2ca6:	41b8                	lw	a4,64(a1)
    2ca8:	00e04a63          	bgtz	a4,2cbc <__sflush_r+0x36>
    2cac:	4501                	li	a0,0
    2cae:	40f2                	lw	ra,28(sp)
    2cb0:	4462                	lw	s0,24(sp)
    2cb2:	44d2                	lw	s1,20(sp)
    2cb4:	4942                	lw	s2,16(sp)
    2cb6:	49b2                	lw	s3,12(sp)
    2cb8:	6105                	addi	sp,sp,32
    2cba:	8082                	ret
    2cbc:	5458                	lw	a4,44(s0)
    2cbe:	d77d                	beqz	a4,2cac <__sflush_r+0x26>
    2cc0:	0004a903          	lw	s2,0(s1)
    2cc4:	01379693          	slli	a3,a5,0x13
    2cc8:	0004a023          	sw	zero,0(s1)
    2ccc:	0606dd63          	bgez	a3,2d46 <__sflush_r+0xc0>
    2cd0:	4870                	lw	a2,84(s0)
    2cd2:	00c45783          	lhu	a5,12(s0)
    2cd6:	8b91                	andi	a5,a5,4
    2cd8:	c799                	beqz	a5,2ce6 <__sflush_r+0x60>
    2cda:	405c                	lw	a5,4(s0)
    2cdc:	8e1d                	sub	a2,a2,a5
    2cde:	585c                	lw	a5,52(s0)
    2ce0:	c399                	beqz	a5,2ce6 <__sflush_r+0x60>
    2ce2:	403c                	lw	a5,64(s0)
    2ce4:	8e1d                	sub	a2,a2,a5
    2ce6:	545c                	lw	a5,44(s0)
    2ce8:	500c                	lw	a1,32(s0)
    2cea:	4681                	li	a3,0
    2cec:	8526                	mv	a0,s1
    2cee:	9782                	jalr	a5
    2cf0:	57fd                	li	a5,-1
    2cf2:	00c45703          	lhu	a4,12(s0)
    2cf6:	00f51d63          	bne	a0,a5,2d10 <__sflush_r+0x8a>
    2cfa:	4094                	lw	a3,0(s1)
    2cfc:	47f5                	li	a5,29
    2cfe:	06d7e863          	bltu	a5,a3,2d6e <__sflush_r+0xe8>
    2d02:	204007b7          	lui	a5,0x20400
    2d06:	0785                	addi	a5,a5,1
    2d08:	00d7d7b3          	srl	a5,a5,a3
    2d0c:	8b85                	andi	a5,a5,1
    2d0e:	c3a5                	beqz	a5,2d6e <__sflush_r+0xe8>
    2d10:	481c                	lw	a5,16(s0)
    2d12:	00042223          	sw	zero,4(s0)
    2d16:	c01c                	sw	a5,0(s0)
    2d18:	01371793          	slli	a5,a4,0x13
    2d1c:	0007d863          	bgez	a5,2d2c <__sflush_r+0xa6>
    2d20:	57fd                	li	a5,-1
    2d22:	00f51463          	bne	a0,a5,2d2a <__sflush_r+0xa4>
    2d26:	409c                	lw	a5,0(s1)
    2d28:	e391                	bnez	a5,2d2c <__sflush_r+0xa6>
    2d2a:	c868                	sw	a0,84(s0)
    2d2c:	584c                	lw	a1,52(s0)
    2d2e:	0124a023          	sw	s2,0(s1)
    2d32:	ddad                	beqz	a1,2cac <__sflush_r+0x26>
    2d34:	04440793          	addi	a5,s0,68
    2d38:	00f58463          	beq	a1,a5,2d40 <__sflush_r+0xba>
    2d3c:	8526                	mv	a0,s1
    2d3e:	2901                	jal	314e <_free_r>
    2d40:	02042a23          	sw	zero,52(s0)
    2d44:	b7a5                	j	2cac <__sflush_r+0x26>
    2d46:	500c                	lw	a1,32(s0)
    2d48:	4601                	li	a2,0
    2d4a:	4685                	li	a3,1
    2d4c:	8526                	mv	a0,s1
    2d4e:	9702                	jalr	a4
    2d50:	57fd                	li	a5,-1
    2d52:	862a                	mv	a2,a0
    2d54:	f6f51fe3          	bne	a0,a5,2cd2 <__sflush_r+0x4c>
    2d58:	409c                	lw	a5,0(s1)
    2d5a:	dfa5                	beqz	a5,2cd2 <__sflush_r+0x4c>
    2d5c:	4775                	li	a4,29
    2d5e:	00e78563          	beq	a5,a4,2d68 <__sflush_r+0xe2>
    2d62:	4759                	li	a4,22
    2d64:	04e79463          	bne	a5,a4,2dac <__sflush_r+0x126>
    2d68:	0124a023          	sw	s2,0(s1)
    2d6c:	b781                	j	2cac <__sflush_r+0x26>
    2d6e:	04076713          	ori	a4,a4,64
    2d72:	00e41623          	sh	a4,12(s0)
    2d76:	557d                	li	a0,-1
    2d78:	bf1d                	j	2cae <__sflush_r+0x28>
    2d7a:	0105a983          	lw	s3,16(a1)
    2d7e:	f20987e3          	beqz	s3,2cac <__sflush_r+0x26>
    2d82:	0005a903          	lw	s2,0(a1)
    2d86:	8b8d                	andi	a5,a5,3
    2d88:	0135a023          	sw	s3,0(a1)
    2d8c:	41390933          	sub	s2,s2,s3
    2d90:	4701                	li	a4,0
    2d92:	e391                	bnez	a5,2d96 <__sflush_r+0x110>
    2d94:	49d8                	lw	a4,20(a1)
    2d96:	c418                	sw	a4,8(s0)
    2d98:	f1205ae3          	blez	s2,2cac <__sflush_r+0x26>
    2d9c:	541c                	lw	a5,40(s0)
    2d9e:	500c                	lw	a1,32(s0)
    2da0:	86ca                	mv	a3,s2
    2da2:	864e                	mv	a2,s3
    2da4:	8526                	mv	a0,s1
    2da6:	9782                	jalr	a5
    2da8:	00a04963          	bgtz	a0,2dba <__sflush_r+0x134>
    2dac:	00c45783          	lhu	a5,12(s0)
    2db0:	0407e793          	ori	a5,a5,64
    2db4:	00f41623          	sh	a5,12(s0)
    2db8:	bf7d                	j	2d76 <__sflush_r+0xf0>
    2dba:	99aa                	add	s3,s3,a0
    2dbc:	40a90933          	sub	s2,s2,a0
    2dc0:	bfe1                	j	2d98 <__sflush_r+0x112>

00002dc2 <_fflush_r>:
_fflush_r():
    2dc2:	499c                	lw	a5,16(a1)
    2dc4:	cfb9                	beqz	a5,2e22 <_fflush_r+0x60>
    2dc6:	1101                	addi	sp,sp,-32
    2dc8:	cc22                	sw	s0,24(sp)
    2dca:	ce06                	sw	ra,28(sp)
    2dcc:	842a                	mv	s0,a0
    2dce:	c511                	beqz	a0,2dda <_fflush_r+0x18>
    2dd0:	4d1c                	lw	a5,24(a0)
    2dd2:	e781                	bnez	a5,2dda <_fflush_r+0x18>
    2dd4:	c62e                	sw	a1,12(sp)
    2dd6:	2229                	jal	2ee0 <__sinit>
    2dd8:	45b2                	lw	a1,12(sp)
    2dda:	00001797          	auipc	a5,0x1
    2dde:	3ea78793          	addi	a5,a5,1002 # 41c4 <__sf_fake_stdin>
    2de2:	00f59b63          	bne	a1,a5,2df8 <_fflush_r+0x36>
    2de6:	404c                	lw	a1,4(s0)
    2de8:	00c59783          	lh	a5,12(a1)
    2dec:	c795                	beqz	a5,2e18 <_fflush_r+0x56>
    2dee:	8522                	mv	a0,s0
    2df0:	4462                	lw	s0,24(sp)
    2df2:	40f2                	lw	ra,28(sp)
    2df4:	6105                	addi	sp,sp,32
    2df6:	bd41                	j	2c86 <__sflush_r>
    2df8:	00001797          	auipc	a5,0x1
    2dfc:	3ec78793          	addi	a5,a5,1004 # 41e4 <__sf_fake_stdout>
    2e00:	00f59463          	bne	a1,a5,2e08 <_fflush_r+0x46>
    2e04:	440c                	lw	a1,8(s0)
    2e06:	b7cd                	j	2de8 <_fflush_r+0x26>
    2e08:	00001797          	auipc	a5,0x1
    2e0c:	39c78793          	addi	a5,a5,924 # 41a4 <__sf_fake_stderr>
    2e10:	fcf59ce3          	bne	a1,a5,2de8 <_fflush_r+0x26>
    2e14:	444c                	lw	a1,12(s0)
    2e16:	bfc9                	j	2de8 <_fflush_r+0x26>
    2e18:	40f2                	lw	ra,28(sp)
    2e1a:	4462                	lw	s0,24(sp)
    2e1c:	4501                	li	a0,0
    2e1e:	6105                	addi	sp,sp,32
    2e20:	8082                	ret
    2e22:	4501                	li	a0,0
    2e24:	8082                	ret

00002e26 <std>:
std():
    2e26:	1141                	addi	sp,sp,-16
    2e28:	c422                	sw	s0,8(sp)
    2e2a:	c606                	sw	ra,12(sp)
    2e2c:	842a                	mv	s0,a0
    2e2e:	00b51623          	sh	a1,12(a0)
    2e32:	00c51723          	sh	a2,14(a0)
    2e36:	00052023          	sw	zero,0(a0)
    2e3a:	00052223          	sw	zero,4(a0)
    2e3e:	00052423          	sw	zero,8(a0)
    2e42:	06052223          	sw	zero,100(a0)
    2e46:	00052823          	sw	zero,16(a0)
    2e4a:	00052a23          	sw	zero,20(a0)
    2e4e:	00052c23          	sw	zero,24(a0)
    2e52:	4621                	li	a2,8
    2e54:	4581                	li	a1,0
    2e56:	05c50513          	addi	a0,a0,92
    2e5a:	d25fd0ef          	jal	ra,b7e <memset>
    2e5e:	00001797          	auipc	a5,0x1
    2e62:	b6e78793          	addi	a5,a5,-1170 # 39cc <__sread>
    2e66:	d05c                	sw	a5,36(s0)
    2e68:	00001797          	auipc	a5,0x1
    2e6c:	b9478793          	addi	a5,a5,-1132 # 39fc <__swrite>
    2e70:	d41c                	sw	a5,40(s0)
    2e72:	00001797          	auipc	a5,0x1
    2e76:	bd878793          	addi	a5,a5,-1064 # 3a4a <__sseek>
    2e7a:	d45c                	sw	a5,44(s0)
    2e7c:	00001797          	auipc	a5,0x1
    2e80:	c0478793          	addi	a5,a5,-1020 # 3a80 <__sclose>
    2e84:	d000                	sw	s0,32(s0)
    2e86:	d81c                	sw	a5,48(s0)
    2e88:	40b2                	lw	ra,12(sp)
    2e8a:	4422                	lw	s0,8(sp)
    2e8c:	0141                	addi	sp,sp,16
    2e8e:	8082                	ret

00002e90 <_cleanup_r>:
_cleanup_r():
    2e90:	00000597          	auipc	a1,0x0
    2e94:	f3258593          	addi	a1,a1,-206 # 2dc2 <_fflush_r>
    2e98:	aa89                	j	2fea <_fwalk_reent>

00002e9a <__sfmoreglue>:
__sfmoreglue():
    2e9a:	1141                	addi	sp,sp,-16
    2e9c:	c226                	sw	s1,4(sp)
    2e9e:	06800613          	li	a2,104
    2ea2:	fff58493          	addi	s1,a1,-1
    2ea6:	02c484b3          	mul	s1,s1,a2
    2eaa:	c04a                	sw	s2,0(sp)
    2eac:	892e                	mv	s2,a1
    2eae:	c422                	sw	s0,8(sp)
    2eb0:	c606                	sw	ra,12(sp)
    2eb2:	07448593          	addi	a1,s1,116
    2eb6:	26a1                	jal	31fe <_malloc_r>
    2eb8:	842a                	mv	s0,a0
    2eba:	cd01                	beqz	a0,2ed2 <__sfmoreglue+0x38>
    2ebc:	00052023          	sw	zero,0(a0)
    2ec0:	01252223          	sw	s2,4(a0)
    2ec4:	0531                	addi	a0,a0,12
    2ec6:	c408                	sw	a0,8(s0)
    2ec8:	06848613          	addi	a2,s1,104
    2ecc:	4581                	li	a1,0
    2ece:	cb1fd0ef          	jal	ra,b7e <memset>
    2ed2:	8522                	mv	a0,s0
    2ed4:	40b2                	lw	ra,12(sp)
    2ed6:	4422                	lw	s0,8(sp)
    2ed8:	4492                	lw	s1,4(sp)
    2eda:	4902                	lw	s2,0(sp)
    2edc:	0141                	addi	sp,sp,16
    2ede:	8082                	ret

00002ee0 <__sinit>:
__sinit():
    2ee0:	4d1c                	lw	a5,24(a0)
    2ee2:	e3bd                	bnez	a5,2f48 <__sinit+0x68>
    2ee4:	1141                	addi	sp,sp,-16
    2ee6:	c606                	sw	ra,12(sp)
    2ee8:	c422                	sw	s0,8(sp)
    2eea:	00000797          	auipc	a5,0x0
    2eee:	fa678793          	addi	a5,a5,-90 # 2e90 <_cleanup_r>
    2ef2:	d51c                	sw	a5,40(a0)
    2ef4:	00001797          	auipc	a5,0x1
    2ef8:	34c78793          	addi	a5,a5,844 # 4240 <_global_impure_ptr>
    2efc:	439c                	lw	a5,0(a5)
    2efe:	04052423          	sw	zero,72(a0)
    2f02:	04052623          	sw	zero,76(a0)
    2f06:	04052823          	sw	zero,80(a0)
    2f0a:	00f51463          	bne	a0,a5,2f12 <__sinit+0x32>
    2f0e:	4785                	li	a5,1
    2f10:	cd1c                	sw	a5,24(a0)
    2f12:	842a                	mv	s0,a0
    2f14:	281d                	jal	2f4a <__sfp>
    2f16:	c048                	sw	a0,4(s0)
    2f18:	8522                	mv	a0,s0
    2f1a:	2805                	jal	2f4a <__sfp>
    2f1c:	c408                	sw	a0,8(s0)
    2f1e:	8522                	mv	a0,s0
    2f20:	202d                	jal	2f4a <__sfp>
    2f22:	c448                	sw	a0,12(s0)
    2f24:	4048                	lw	a0,4(s0)
    2f26:	4601                	li	a2,0
    2f28:	4591                	li	a1,4
    2f2a:	3df5                	jal	2e26 <std>
    2f2c:	4408                	lw	a0,8(s0)
    2f2e:	4605                	li	a2,1
    2f30:	45a5                	li	a1,9
    2f32:	3dd5                	jal	2e26 <std>
    2f34:	4448                	lw	a0,12(s0)
    2f36:	4609                	li	a2,2
    2f38:	45c9                	li	a1,18
    2f3a:	35f5                	jal	2e26 <std>
    2f3c:	4785                	li	a5,1
    2f3e:	cc1c                	sw	a5,24(s0)
    2f40:	40b2                	lw	ra,12(sp)
    2f42:	4422                	lw	s0,8(sp)
    2f44:	0141                	addi	sp,sp,16
    2f46:	8082                	ret
    2f48:	8082                	ret

00002f4a <__sfp>:
__sfp():
    2f4a:	1141                	addi	sp,sp,-16
    2f4c:	00001797          	auipc	a5,0x1
    2f50:	2f478793          	addi	a5,a5,756 # 4240 <_global_impure_ptr>
    2f54:	c226                	sw	s1,4(sp)
    2f56:	4384                	lw	s1,0(a5)
    2f58:	c04a                	sw	s2,0(sp)
    2f5a:	c606                	sw	ra,12(sp)
    2f5c:	4c9c                	lw	a5,24(s1)
    2f5e:	c422                	sw	s0,8(sp)
    2f60:	892a                	mv	s2,a0
    2f62:	e399                	bnez	a5,2f68 <__sfp+0x1e>
    2f64:	8526                	mv	a0,s1
    2f66:	3fad                	jal	2ee0 <__sinit>
    2f68:	04848493          	addi	s1,s1,72
    2f6c:	4480                	lw	s0,8(s1)
    2f6e:	40dc                	lw	a5,4(s1)
    2f70:	17fd                	addi	a5,a5,-1
    2f72:	0007d663          	bgez	a5,2f7e <__sfp+0x34>
    2f76:	409c                	lw	a5,0(s1)
    2f78:	cfb9                	beqz	a5,2fd6 <__sfp+0x8c>
    2f7a:	4084                	lw	s1,0(s1)
    2f7c:	bfc5                	j	2f6c <__sfp+0x22>
    2f7e:	00c41703          	lh	a4,12(s0)
    2f82:	e739                	bnez	a4,2fd0 <__sfp+0x86>
    2f84:	77c1                	lui	a5,0xffff0
    2f86:	0785                	addi	a5,a5,1
    2f88:	06042223          	sw	zero,100(s0)
    2f8c:	00042023          	sw	zero,0(s0)
    2f90:	00042223          	sw	zero,4(s0)
    2f94:	00042423          	sw	zero,8(s0)
    2f98:	c45c                	sw	a5,12(s0)
    2f9a:	00042823          	sw	zero,16(s0)
    2f9e:	00042a23          	sw	zero,20(s0)
    2fa2:	00042c23          	sw	zero,24(s0)
    2fa6:	4621                	li	a2,8
    2fa8:	4581                	li	a1,0
    2faa:	05c40513          	addi	a0,s0,92
    2fae:	bd1fd0ef          	jal	ra,b7e <memset>
    2fb2:	02042a23          	sw	zero,52(s0)
    2fb6:	02042c23          	sw	zero,56(s0)
    2fba:	04042423          	sw	zero,72(s0)
    2fbe:	04042623          	sw	zero,76(s0)
    2fc2:	8522                	mv	a0,s0
    2fc4:	40b2                	lw	ra,12(sp)
    2fc6:	4422                	lw	s0,8(sp)
    2fc8:	4492                	lw	s1,4(sp)
    2fca:	4902                	lw	s2,0(sp)
    2fcc:	0141                	addi	sp,sp,16
    2fce:	8082                	ret
    2fd0:	06840413          	addi	s0,s0,104
    2fd4:	bf71                	j	2f70 <__sfp+0x26>
    2fd6:	4591                	li	a1,4
    2fd8:	854a                	mv	a0,s2
    2fda:	35c1                	jal	2e9a <__sfmoreglue>
    2fdc:	c088                	sw	a0,0(s1)
    2fde:	fd51                	bnez	a0,2f7a <__sfp+0x30>
    2fe0:	47b1                	li	a5,12
    2fe2:	00f92023          	sw	a5,0(s2)
    2fe6:	4401                	li	s0,0
    2fe8:	bfe9                	j	2fc2 <__sfp+0x78>

00002fea <_fwalk_reent>:
_fwalk_reent():
    2fea:	7179                	addi	sp,sp,-48
    2fec:	d422                	sw	s0,40(sp)
    2fee:	d04a                	sw	s2,32(sp)
    2ff0:	cc52                	sw	s4,24(sp)
    2ff2:	ca56                	sw	s5,20(sp)
    2ff4:	c85a                	sw	s6,16(sp)
    2ff6:	c65e                	sw	s7,12(sp)
    2ff8:	d606                	sw	ra,44(sp)
    2ffa:	d226                	sw	s1,36(sp)
    2ffc:	ce4e                	sw	s3,28(sp)
    2ffe:	8a2a                	mv	s4,a0
    3000:	8aae                	mv	s5,a1
    3002:	04850413          	addi	s0,a0,72
    3006:	4901                	li	s2,0
    3008:	4b05                	li	s6,1
    300a:	5bfd                	li	s7,-1
    300c:	ec09                	bnez	s0,3026 <_fwalk_reent+0x3c>
    300e:	50b2                	lw	ra,44(sp)
    3010:	5422                	lw	s0,40(sp)
    3012:	854a                	mv	a0,s2
    3014:	5492                	lw	s1,36(sp)
    3016:	5902                	lw	s2,32(sp)
    3018:	49f2                	lw	s3,28(sp)
    301a:	4a62                	lw	s4,24(sp)
    301c:	4ad2                	lw	s5,20(sp)
    301e:	4b42                	lw	s6,16(sp)
    3020:	4bb2                	lw	s7,12(sp)
    3022:	6145                	addi	sp,sp,48
    3024:	8082                	ret
    3026:	4404                	lw	s1,8(s0)
    3028:	00442983          	lw	s3,4(s0)
    302c:	19fd                	addi	s3,s3,-1
    302e:	0009d463          	bgez	s3,3036 <_fwalk_reent+0x4c>
    3032:	4000                	lw	s0,0(s0)
    3034:	bfe1                	j	300c <_fwalk_reent+0x22>
    3036:	00c4d783          	lhu	a5,12(s1)
    303a:	00fb7b63          	bgeu	s6,a5,3050 <_fwalk_reent+0x66>
    303e:	00e49783          	lh	a5,14(s1)
    3042:	01778763          	beq	a5,s7,3050 <_fwalk_reent+0x66>
    3046:	85a6                	mv	a1,s1
    3048:	8552                	mv	a0,s4
    304a:	9a82                	jalr	s5
    304c:	00a96933          	or	s2,s2,a0
    3050:	06848493          	addi	s1,s1,104
    3054:	bfe1                	j	302c <_fwalk_reent+0x42>

00003056 <__swhatbuf_r>:
__swhatbuf_r():
    3056:	7119                	addi	sp,sp,-128
    3058:	daa6                	sw	s1,116(sp)
    305a:	84ae                	mv	s1,a1
    305c:	00e59583          	lh	a1,14(a1)
    3060:	dca2                	sw	s0,120(sp)
    3062:	de86                	sw	ra,124(sp)
    3064:	8432                	mv	s0,a2
    3066:	0005dc63          	bgez	a1,307e <__swhatbuf_r+0x28>
    306a:	00c4d783          	lhu	a5,12(s1)
    306e:	0006a023          	sw	zero,0(a3)
    3072:	0807f793          	andi	a5,a5,128
    3076:	e785                	bnez	a5,309e <__swhatbuf_r+0x48>
    3078:	40000793          	li	a5,1024
    307c:	a01d                	j	30a2 <__swhatbuf_r+0x4c>
    307e:	0830                	addi	a2,sp,24
    3080:	c636                	sw	a3,12(sp)
    3082:	26b000ef          	jal	ra,3aec <_fstat_r>
    3086:	46b2                	lw	a3,12(sp)
    3088:	fe0541e3          	bltz	a0,306a <__swhatbuf_r+0x14>
    308c:	4772                	lw	a4,28(sp)
    308e:	67bd                	lui	a5,0xf
    3090:	8ff9                	and	a5,a5,a4
    3092:	7779                	lui	a4,0xffffe
    3094:	97ba                	add	a5,a5,a4
    3096:	0017b793          	seqz	a5,a5
    309a:	c29c                	sw	a5,0(a3)
    309c:	bff1                	j	3078 <__swhatbuf_r+0x22>
    309e:	04000793          	li	a5,64
    30a2:	c01c                	sw	a5,0(s0)
    30a4:	50f6                	lw	ra,124(sp)
    30a6:	5466                	lw	s0,120(sp)
    30a8:	54d6                	lw	s1,116(sp)
    30aa:	4501                	li	a0,0
    30ac:	6109                	addi	sp,sp,128
    30ae:	8082                	ret

000030b0 <__smakebuf_r>:
__smakebuf_r():
    30b0:	00c5d783          	lhu	a5,12(a1)
    30b4:	1101                	addi	sp,sp,-32
    30b6:	cc22                	sw	s0,24(sp)
    30b8:	ce06                	sw	ra,28(sp)
    30ba:	ca26                	sw	s1,20(sp)
    30bc:	c84a                	sw	s2,16(sp)
    30be:	8b89                	andi	a5,a5,2
    30c0:	842e                	mv	s0,a1
    30c2:	cf89                	beqz	a5,30dc <__smakebuf_r+0x2c>
    30c4:	04740793          	addi	a5,s0,71
    30c8:	c01c                	sw	a5,0(s0)
    30ca:	c81c                	sw	a5,16(s0)
    30cc:	4785                	li	a5,1
    30ce:	c85c                	sw	a5,20(s0)
    30d0:	40f2                	lw	ra,28(sp)
    30d2:	4462                	lw	s0,24(sp)
    30d4:	44d2                	lw	s1,20(sp)
    30d6:	4942                	lw	s2,16(sp)
    30d8:	6105                	addi	sp,sp,32
    30da:	8082                	ret
    30dc:	0074                	addi	a3,sp,12
    30de:	0030                	addi	a2,sp,8
    30e0:	84aa                	mv	s1,a0
    30e2:	3f95                	jal	3056 <__swhatbuf_r>
    30e4:	45a2                	lw	a1,8(sp)
    30e6:	892a                	mv	s2,a0
    30e8:	8526                	mv	a0,s1
    30ea:	2a11                	jal	31fe <_malloc_r>
    30ec:	ed01                	bnez	a0,3104 <__smakebuf_r+0x54>
    30ee:	00c41783          	lh	a5,12(s0)
    30f2:	2007f713          	andi	a4,a5,512
    30f6:	ff69                	bnez	a4,30d0 <__smakebuf_r+0x20>
    30f8:	9bf1                	andi	a5,a5,-4
    30fa:	0027e793          	ori	a5,a5,2
    30fe:	00f41623          	sh	a5,12(s0)
    3102:	b7c9                	j	30c4 <__smakebuf_r+0x14>
    3104:	00000797          	auipc	a5,0x0
    3108:	d8c78793          	addi	a5,a5,-628 # 2e90 <_cleanup_r>
    310c:	d49c                	sw	a5,40(s1)
    310e:	00c45783          	lhu	a5,12(s0)
    3112:	c008                	sw	a0,0(s0)
    3114:	c808                	sw	a0,16(s0)
    3116:	0807e793          	ori	a5,a5,128
    311a:	00f41623          	sh	a5,12(s0)
    311e:	47a2                	lw	a5,8(sp)
    3120:	c85c                	sw	a5,20(s0)
    3122:	47b2                	lw	a5,12(sp)
    3124:	cf91                	beqz	a5,3140 <__smakebuf_r+0x90>
    3126:	00e41583          	lh	a1,14(s0)
    312a:	8526                	mv	a0,s1
    312c:	1f3000ef          	jal	ra,3b1e <_isatty_r>
    3130:	c901                	beqz	a0,3140 <__smakebuf_r+0x90>
    3132:	00c45783          	lhu	a5,12(s0)
    3136:	9bf1                	andi	a5,a5,-4
    3138:	0017e793          	ori	a5,a5,1
    313c:	00f41623          	sh	a5,12(s0)
    3140:	00c45783          	lhu	a5,12(s0)
    3144:	00f96933          	or	s2,s2,a5
    3148:	01241623          	sh	s2,12(s0)
    314c:	b751                	j	30d0 <__smakebuf_r+0x20>

0000314e <_free_r>:
_free_r():
    314e:	c5dd                	beqz	a1,31fc <_free_r+0xae>
    3150:	ffc5a783          	lw	a5,-4(a1)
    3154:	1141                	addi	sp,sp,-16
    3156:	c422                	sw	s0,8(sp)
    3158:	c606                	sw	ra,12(sp)
    315a:	c226                	sw	s1,4(sp)
    315c:	ffc58413          	addi	s0,a1,-4
    3160:	0007d363          	bgez	a5,3166 <_free_r+0x18>
    3164:	943e                	add	s0,s0,a5
    3166:	84aa                	mv	s1,a0
    3168:	235000ef          	jal	ra,3b9c <__malloc_lock>
    316c:	1ffff797          	auipc	a5,0x1ffff
    3170:	b8c78793          	addi	a5,a5,-1140 # 20001cf8 <__malloc_free_list>
    3174:	439c                	lw	a5,0(a5)
    3176:	ef91                	bnez	a5,3192 <_free_r+0x44>
    3178:	00042223          	sw	zero,4(s0)
    317c:	1ffff797          	auipc	a5,0x1ffff
    3180:	b687ae23          	sw	s0,-1156(a5) # 20001cf8 <__malloc_free_list>
    3184:	4422                	lw	s0,8(sp)
    3186:	40b2                	lw	ra,12(sp)
    3188:	8526                	mv	a0,s1
    318a:	4492                	lw	s1,4(sp)
    318c:	0141                	addi	sp,sp,16
    318e:	2110006f          	j	3b9e <__malloc_unlock>
    3192:	00f47e63          	bgeu	s0,a5,31ae <_free_r+0x60>
    3196:	4014                	lw	a3,0(s0)
    3198:	00d40733          	add	a4,s0,a3
    319c:	00e79663          	bne	a5,a4,31a8 <_free_r+0x5a>
    31a0:	4398                	lw	a4,0(a5)
    31a2:	43dc                	lw	a5,4(a5)
    31a4:	9736                	add	a4,a4,a3
    31a6:	c018                	sw	a4,0(s0)
    31a8:	c05c                	sw	a5,4(s0)
    31aa:	bfc9                	j	317c <_free_r+0x2e>
    31ac:	87ba                	mv	a5,a4
    31ae:	43d8                	lw	a4,4(a5)
    31b0:	c319                	beqz	a4,31b6 <_free_r+0x68>
    31b2:	fee47de3          	bgeu	s0,a4,31ac <_free_r+0x5e>
    31b6:	4394                	lw	a3,0(a5)
    31b8:	00d78633          	add	a2,a5,a3
    31bc:	00861f63          	bne	a2,s0,31da <_free_r+0x8c>
    31c0:	4010                	lw	a2,0(s0)
    31c2:	96b2                	add	a3,a3,a2
    31c4:	c394                	sw	a3,0(a5)
    31c6:	00d78633          	add	a2,a5,a3
    31ca:	fac71de3          	bne	a4,a2,3184 <_free_r+0x36>
    31ce:	4310                	lw	a2,0(a4)
    31d0:	4358                	lw	a4,4(a4)
    31d2:	96b2                	add	a3,a3,a2
    31d4:	c394                	sw	a3,0(a5)
    31d6:	c3d8                	sw	a4,4(a5)
    31d8:	b775                	j	3184 <_free_r+0x36>
    31da:	00c47563          	bgeu	s0,a2,31e4 <_free_r+0x96>
    31de:	47b1                	li	a5,12
    31e0:	c09c                	sw	a5,0(s1)
    31e2:	b74d                	j	3184 <_free_r+0x36>
    31e4:	4010                	lw	a2,0(s0)
    31e6:	00c406b3          	add	a3,s0,a2
    31ea:	00d71663          	bne	a4,a3,31f6 <_free_r+0xa8>
    31ee:	4314                	lw	a3,0(a4)
    31f0:	4358                	lw	a4,4(a4)
    31f2:	96b2                	add	a3,a3,a2
    31f4:	c014                	sw	a3,0(s0)
    31f6:	c058                	sw	a4,4(s0)
    31f8:	c3c0                	sw	s0,4(a5)
    31fa:	b769                	j	3184 <_free_r+0x36>
    31fc:	8082                	ret

000031fe <_malloc_r>:
_malloc_r():
    31fe:	1101                	addi	sp,sp,-32
    3200:	ca26                	sw	s1,20(sp)
    3202:	00358493          	addi	s1,a1,3
    3206:	98f1                	andi	s1,s1,-4
    3208:	ce06                	sw	ra,28(sp)
    320a:	cc22                	sw	s0,24(sp)
    320c:	c84a                	sw	s2,16(sp)
    320e:	c64e                	sw	s3,12(sp)
    3210:	04a1                	addi	s1,s1,8
    3212:	47b1                	li	a5,12
    3214:	04f4f963          	bgeu	s1,a5,3266 <_malloc_r+0x68>
    3218:	44b1                	li	s1,12
    321a:	04b4e863          	bltu	s1,a1,326a <_malloc_r+0x6c>
    321e:	892a                	mv	s2,a0
    3220:	17d000ef          	jal	ra,3b9c <__malloc_lock>
    3224:	1ffff797          	auipc	a5,0x1ffff
    3228:	ad478793          	addi	a5,a5,-1324 # 20001cf8 <__malloc_free_list>
    322c:	4398                	lw	a4,0(a5)
    322e:	843a                	mv	s0,a4
    3230:	e439                	bnez	s0,327e <_malloc_r+0x80>
    3232:	1ffff797          	auipc	a5,0x1ffff
    3236:	aca78793          	addi	a5,a5,-1334 # 20001cfc <__malloc_sbrk_start>
    323a:	439c                	lw	a5,0(a5)
    323c:	eb81                	bnez	a5,324c <_malloc_r+0x4e>
    323e:	4581                	li	a1,0
    3240:	854a                	mv	a0,s2
    3242:	2fa9                	jal	399c <_sbrk_r>
    3244:	1ffff797          	auipc	a5,0x1ffff
    3248:	aaa7ac23          	sw	a0,-1352(a5) # 20001cfc <__malloc_sbrk_start>
    324c:	85a6                	mv	a1,s1
    324e:	854a                	mv	a0,s2
    3250:	27b1                	jal	399c <_sbrk_r>
    3252:	59fd                	li	s3,-1
    3254:	07351b63          	bne	a0,s3,32ca <_malloc_r+0xcc>
    3258:	47b1                	li	a5,12
    325a:	00f92023          	sw	a5,0(s2)
    325e:	854a                	mv	a0,s2
    3260:	13f000ef          	jal	ra,3b9e <__malloc_unlock>
    3264:	a029                	j	326e <_malloc_r+0x70>
    3266:	fa04dae3          	bgez	s1,321a <_malloc_r+0x1c>
    326a:	47b1                	li	a5,12
    326c:	c11c                	sw	a5,0(a0)
    326e:	4501                	li	a0,0
    3270:	40f2                	lw	ra,28(sp)
    3272:	4462                	lw	s0,24(sp)
    3274:	44d2                	lw	s1,20(sp)
    3276:	4942                	lw	s2,16(sp)
    3278:	49b2                	lw	s3,12(sp)
    327a:	6105                	addi	sp,sp,32
    327c:	8082                	ret
    327e:	401c                	lw	a5,0(s0)
    3280:	8f85                	sub	a5,a5,s1
    3282:	0407c163          	bltz	a5,32c4 <_malloc_r+0xc6>
    3286:	46ad                	li	a3,11
    3288:	00f6f663          	bgeu	a3,a5,3294 <_malloc_r+0x96>
    328c:	c01c                	sw	a5,0(s0)
    328e:	943e                	add	s0,s0,a5
    3290:	c004                	sw	s1,0(s0)
    3292:	a801                	j	32a2 <_malloc_r+0xa4>
    3294:	405c                	lw	a5,4(s0)
    3296:	02871563          	bne	a4,s0,32c0 <_malloc_r+0xc2>
    329a:	1ffff717          	auipc	a4,0x1ffff
    329e:	a4f72f23          	sw	a5,-1442(a4) # 20001cf8 <__malloc_free_list>
    32a2:	854a                	mv	a0,s2
    32a4:	0fb000ef          	jal	ra,3b9e <__malloc_unlock>
    32a8:	00b40513          	addi	a0,s0,11
    32ac:	00440793          	addi	a5,s0,4
    32b0:	9961                	andi	a0,a0,-8
    32b2:	40f50733          	sub	a4,a0,a5
    32b6:	df4d                	beqz	a4,3270 <_malloc_r+0x72>
    32b8:	943a                	add	s0,s0,a4
    32ba:	8f89                	sub	a5,a5,a0
    32bc:	c01c                	sw	a5,0(s0)
    32be:	bf4d                	j	3270 <_malloc_r+0x72>
    32c0:	c35c                	sw	a5,4(a4)
    32c2:	b7c5                	j	32a2 <_malloc_r+0xa4>
    32c4:	8722                	mv	a4,s0
    32c6:	4040                	lw	s0,4(s0)
    32c8:	b7a5                	j	3230 <_malloc_r+0x32>
    32ca:	00350413          	addi	s0,a0,3
    32ce:	9871                	andi	s0,s0,-4
    32d0:	fc8500e3          	beq	a0,s0,3290 <_malloc_r+0x92>
    32d4:	40a405b3          	sub	a1,s0,a0
    32d8:	854a                	mv	a0,s2
    32da:	25c9                	jal	399c <_sbrk_r>
    32dc:	fb351ae3          	bne	a0,s3,3290 <_malloc_r+0x92>
    32e0:	bfa5                	j	3258 <_malloc_r+0x5a>

000032e2 <__sfputc_r>:
__sfputc_r():
    32e2:	461c                	lw	a5,8(a2)
    32e4:	17fd                	addi	a5,a5,-1
    32e6:	c61c                	sw	a5,8(a2)
    32e8:	0007da63          	bgez	a5,32fc <__sfputc_r+0x1a>
    32ec:	4e18                	lw	a4,24(a2)
    32ee:	00e7c563          	blt	a5,a4,32f8 <__sfputc_r+0x16>
    32f2:	47a9                	li	a5,10
    32f4:	00f59463          	bne	a1,a5,32fc <__sfputc_r+0x1a>
    32f8:	fbeff06f          	j	2ab6 <__swbuf_r>
    32fc:	421c                	lw	a5,0(a2)
    32fe:	852e                	mv	a0,a1
    3300:	00178713          	addi	a4,a5,1
    3304:	c218                	sw	a4,0(a2)
    3306:	00b78023          	sb	a1,0(a5)
    330a:	8082                	ret

0000330c <__sfputs_r>:
__sfputs_r():
    330c:	1101                	addi	sp,sp,-32
    330e:	cc22                	sw	s0,24(sp)
    3310:	ca26                	sw	s1,20(sp)
    3312:	c84a                	sw	s2,16(sp)
    3314:	c64e                	sw	s3,12(sp)
    3316:	c452                	sw	s4,8(sp)
    3318:	ce06                	sw	ra,28(sp)
    331a:	892a                	mv	s2,a0
    331c:	89ae                	mv	s3,a1
    331e:	8432                	mv	s0,a2
    3320:	00d604b3          	add	s1,a2,a3
    3324:	5a7d                	li	s4,-1
    3326:	00941463          	bne	s0,s1,332e <__sfputs_r+0x22>
    332a:	4501                	li	a0,0
    332c:	a809                	j	333e <__sfputs_r+0x32>
    332e:	00044583          	lbu	a1,0(s0)
    3332:	864e                	mv	a2,s3
    3334:	854a                	mv	a0,s2
    3336:	3775                	jal	32e2 <__sfputc_r>
    3338:	0405                	addi	s0,s0,1
    333a:	ff4516e3          	bne	a0,s4,3326 <__sfputs_r+0x1a>
    333e:	40f2                	lw	ra,28(sp)
    3340:	4462                	lw	s0,24(sp)
    3342:	44d2                	lw	s1,20(sp)
    3344:	4942                	lw	s2,16(sp)
    3346:	49b2                	lw	s3,12(sp)
    3348:	4a22                	lw	s4,8(sp)
    334a:	6105                	addi	sp,sp,32
    334c:	8082                	ret

0000334e <_vfiprintf_r>:
_vfiprintf_r():
    334e:	7135                	addi	sp,sp,-160
    3350:	cd22                	sw	s0,152(sp)
    3352:	cb26                	sw	s1,148(sp)
    3354:	c94a                	sw	s2,144(sp)
    3356:	c74e                	sw	s3,140(sp)
    3358:	cf06                	sw	ra,156(sp)
    335a:	c552                	sw	s4,136(sp)
    335c:	c356                	sw	s5,132(sp)
    335e:	c15a                	sw	s6,128(sp)
    3360:	dede                	sw	s7,124(sp)
    3362:	dce2                	sw	s8,120(sp)
    3364:	dae6                	sw	s9,116(sp)
    3366:	89aa                	mv	s3,a0
    3368:	84ae                	mv	s1,a1
    336a:	8932                	mv	s2,a2
    336c:	8436                	mv	s0,a3
    336e:	c509                	beqz	a0,3378 <_vfiprintf_r+0x2a>
    3370:	4d1c                	lw	a5,24(a0)
    3372:	e399                	bnez	a5,3378 <_vfiprintf_r+0x2a>
    3374:	b6dff0ef          	jal	ra,2ee0 <__sinit>
    3378:	00001797          	auipc	a5,0x1
    337c:	e4c78793          	addi	a5,a5,-436 # 41c4 <__sf_fake_stdin>
    3380:	0cf49b63          	bne	s1,a5,3456 <_vfiprintf_r+0x108>
    3384:	0049a483          	lw	s1,4(s3)
    3388:	00c4d783          	lhu	a5,12(s1)
    338c:	8ba1                	andi	a5,a5,8
    338e:	c7f5                	beqz	a5,347a <_vfiprintf_r+0x12c>
    3390:	489c                	lw	a5,16(s1)
    3392:	c7e5                	beqz	a5,347a <_vfiprintf_r+0x12c>
    3394:	02000793          	li	a5,32
    3398:	02f104a3          	sb	a5,41(sp)
    339c:	03000793          	li	a5,48
    33a0:	d202                	sw	zero,36(sp)
    33a2:	02f10523          	sb	a5,42(sp)
    33a6:	c622                	sw	s0,12(sp)
    33a8:	02500b93          	li	s7,37
    33ac:	00001a97          	auipc	s5,0x1
    33b0:	e58a8a93          	addi	s5,s5,-424 # 4204 <__sf_fake_stdout+0x20>
    33b4:	4c05                	li	s8,1
    33b6:	4b29                	li	s6,10
    33b8:	844a                	mv	s0,s2
    33ba:	00044783          	lbu	a5,0(s0)
    33be:	c399                	beqz	a5,33c4 <_vfiprintf_r+0x76>
    33c0:	0f779063          	bne	a5,s7,34a0 <_vfiprintf_r+0x152>
    33c4:	41240cb3          	sub	s9,s0,s2
    33c8:	000c8d63          	beqz	s9,33e2 <_vfiprintf_r+0x94>
    33cc:	86e6                	mv	a3,s9
    33ce:	864a                	mv	a2,s2
    33d0:	85a6                	mv	a1,s1
    33d2:	854e                	mv	a0,s3
    33d4:	3f25                	jal	330c <__sfputs_r>
    33d6:	57fd                	li	a5,-1
    33d8:	1ef50663          	beq	a0,a5,35c4 <_vfiprintf_r+0x276>
    33dc:	5692                	lw	a3,36(sp)
    33de:	96e6                	add	a3,a3,s9
    33e0:	d236                	sw	a3,36(sp)
    33e2:	00044783          	lbu	a5,0(s0)
    33e6:	1c078f63          	beqz	a5,35c4 <_vfiprintf_r+0x276>
    33ea:	57fd                	li	a5,-1
    33ec:	00140913          	addi	s2,s0,1
    33f0:	c802                	sw	zero,16(sp)
    33f2:	ce02                	sw	zero,28(sp)
    33f4:	ca3e                	sw	a5,20(sp)
    33f6:	cc02                	sw	zero,24(sp)
    33f8:	040109a3          	sb	zero,83(sp)
    33fc:	d482                	sw	zero,104(sp)
    33fe:	00094583          	lbu	a1,0(s2)
    3402:	4615                	li	a2,5
    3404:	8556                	mv	a0,s5
    3406:	2fb5                	jal	3b82 <memchr>
    3408:	00190413          	addi	s0,s2,1
    340c:	47c2                	lw	a5,16(sp)
    340e:	e959                	bnez	a0,34a4 <_vfiprintf_r+0x156>
    3410:	0107f713          	andi	a4,a5,16
    3414:	c709                	beqz	a4,341e <_vfiprintf_r+0xd0>
    3416:	02000713          	li	a4,32
    341a:	04e109a3          	sb	a4,83(sp)
    341e:	0087f713          	andi	a4,a5,8
    3422:	c709                	beqz	a4,342c <_vfiprintf_r+0xde>
    3424:	02b00713          	li	a4,43
    3428:	04e109a3          	sb	a4,83(sp)
    342c:	00094683          	lbu	a3,0(s2)
    3430:	02a00713          	li	a4,42
    3434:	08e68063          	beq	a3,a4,34b4 <_vfiprintf_r+0x166>
    3438:	47f2                	lw	a5,28(sp)
    343a:	844a                	mv	s0,s2
    343c:	4681                	li	a3,0
    343e:	4625                	li	a2,9
    3440:	00044703          	lbu	a4,0(s0)
    3444:	00140593          	addi	a1,s0,1
    3448:	fd070713          	addi	a4,a4,-48
    344c:	0ae67963          	bgeu	a2,a4,34fe <_vfiprintf_r+0x1b0>
    3450:	cab5                	beqz	a3,34c4 <_vfiprintf_r+0x176>
    3452:	ce3e                	sw	a5,28(sp)
    3454:	a885                	j	34c4 <_vfiprintf_r+0x176>
    3456:	00001797          	auipc	a5,0x1
    345a:	d8e78793          	addi	a5,a5,-626 # 41e4 <__sf_fake_stdout>
    345e:	00f49563          	bne	s1,a5,3468 <_vfiprintf_r+0x11a>
    3462:	0089a483          	lw	s1,8(s3)
    3466:	b70d                	j	3388 <_vfiprintf_r+0x3a>
    3468:	00001797          	auipc	a5,0x1
    346c:	d3c78793          	addi	a5,a5,-708 # 41a4 <__sf_fake_stderr>
    3470:	f0f49ce3          	bne	s1,a5,3388 <_vfiprintf_r+0x3a>
    3474:	00c9a483          	lw	s1,12(s3)
    3478:	bf01                	j	3388 <_vfiprintf_r+0x3a>
    347a:	85a6                	mv	a1,s1
    347c:	854e                	mv	a0,s3
    347e:	ef8ff0ef          	jal	ra,2b76 <__swsetup_r>
    3482:	d909                	beqz	a0,3394 <_vfiprintf_r+0x46>
    3484:	557d                	li	a0,-1
    3486:	40fa                	lw	ra,156(sp)
    3488:	446a                	lw	s0,152(sp)
    348a:	44da                	lw	s1,148(sp)
    348c:	494a                	lw	s2,144(sp)
    348e:	49ba                	lw	s3,140(sp)
    3490:	4a2a                	lw	s4,136(sp)
    3492:	4a9a                	lw	s5,132(sp)
    3494:	4b0a                	lw	s6,128(sp)
    3496:	5bf6                	lw	s7,124(sp)
    3498:	5c66                	lw	s8,120(sp)
    349a:	5cd6                	lw	s9,116(sp)
    349c:	610d                	addi	sp,sp,160
    349e:	8082                	ret
    34a0:	0405                	addi	s0,s0,1
    34a2:	bf21                	j	33ba <_vfiprintf_r+0x6c>
    34a4:	41550533          	sub	a0,a0,s5
    34a8:	00ac1533          	sll	a0,s8,a0
    34ac:	8fc9                	or	a5,a5,a0
    34ae:	c83e                	sw	a5,16(sp)
    34b0:	8922                	mv	s2,s0
    34b2:	b7b1                	j	33fe <_vfiprintf_r+0xb0>
    34b4:	4732                	lw	a4,12(sp)
    34b6:	00470693          	addi	a3,a4,4
    34ba:	4318                	lw	a4,0(a4)
    34bc:	c636                	sw	a3,12(sp)
    34be:	02074963          	bltz	a4,34f0 <_vfiprintf_r+0x1a2>
    34c2:	ce3a                	sw	a4,28(sp)
    34c4:	00044703          	lbu	a4,0(s0)
    34c8:	02e00793          	li	a5,46
    34cc:	04f71f63          	bne	a4,a5,352a <_vfiprintf_r+0x1dc>
    34d0:	00144703          	lbu	a4,1(s0)
    34d4:	02a00793          	li	a5,42
    34d8:	02f71b63          	bne	a4,a5,350e <_vfiprintf_r+0x1c0>
    34dc:	47b2                	lw	a5,12(sp)
    34de:	0409                	addi	s0,s0,2
    34e0:	00478713          	addi	a4,a5,4
    34e4:	439c                	lw	a5,0(a5)
    34e6:	c63a                	sw	a4,12(sp)
    34e8:	0207c163          	bltz	a5,350a <_vfiprintf_r+0x1bc>
    34ec:	ca3e                	sw	a5,20(sp)
    34ee:	a835                	j	352a <_vfiprintf_r+0x1dc>
    34f0:	40e00733          	neg	a4,a4
    34f4:	0027e793          	ori	a5,a5,2
    34f8:	ce3a                	sw	a4,28(sp)
    34fa:	c83e                	sw	a5,16(sp)
    34fc:	b7e1                	j	34c4 <_vfiprintf_r+0x176>
    34fe:	036787b3          	mul	a5,a5,s6
    3502:	4685                	li	a3,1
    3504:	842e                	mv	s0,a1
    3506:	97ba                	add	a5,a5,a4
    3508:	bf25                	j	3440 <_vfiprintf_r+0xf2>
    350a:	57fd                	li	a5,-1
    350c:	b7c5                	j	34ec <_vfiprintf_r+0x19e>
    350e:	0405                	addi	s0,s0,1
    3510:	ca02                	sw	zero,20(sp)
    3512:	4681                	li	a3,0
    3514:	4781                	li	a5,0
    3516:	4625                	li	a2,9
    3518:	00044703          	lbu	a4,0(s0)
    351c:	00140593          	addi	a1,s0,1
    3520:	fd070713          	addi	a4,a4,-48
    3524:	06e67663          	bgeu	a2,a4,3590 <_vfiprintf_r+0x242>
    3528:	f2f1                	bnez	a3,34ec <_vfiprintf_r+0x19e>
    352a:	00044583          	lbu	a1,0(s0)
    352e:	460d                	li	a2,3
    3530:	00001517          	auipc	a0,0x1
    3534:	cdc50513          	addi	a0,a0,-804 # 420c <__sf_fake_stdout+0x28>
    3538:	25a9                	jal	3b82 <memchr>
    353a:	cd11                	beqz	a0,3556 <_vfiprintf_r+0x208>
    353c:	00001797          	auipc	a5,0x1
    3540:	cd078793          	addi	a5,a5,-816 # 420c <__sf_fake_stdout+0x28>
    3544:	8d1d                	sub	a0,a0,a5
    3546:	04000793          	li	a5,64
    354a:	00a797b3          	sll	a5,a5,a0
    354e:	4542                	lw	a0,16(sp)
    3550:	0405                	addi	s0,s0,1
    3552:	8d5d                	or	a0,a0,a5
    3554:	c82a                	sw	a0,16(sp)
    3556:	00044583          	lbu	a1,0(s0)
    355a:	4619                	li	a2,6
    355c:	00001517          	auipc	a0,0x1
    3560:	cb450513          	addi	a0,a0,-844 # 4210 <__sf_fake_stdout+0x2c>
    3564:	00140913          	addi	s2,s0,1
    3568:	02b10423          	sb	a1,40(sp)
    356c:	2d19                	jal	3b82 <memchr>
    356e:	c13d                	beqz	a0,35d4 <_vfiprintf_r+0x286>
    3570:	ffffd797          	auipc	a5,0xffffd
    3574:	a9078793          	addi	a5,a5,-1392 # 0 <_sinit>
    3578:	e795                	bnez	a5,35a4 <_vfiprintf_r+0x256>
    357a:	4742                	lw	a4,16(sp)
    357c:	47b2                	lw	a5,12(sp)
    357e:	10077713          	andi	a4,a4,256
    3582:	cf09                	beqz	a4,359c <_vfiprintf_r+0x24e>
    3584:	0791                	addi	a5,a5,4
    3586:	c63e                	sw	a5,12(sp)
    3588:	5792                	lw	a5,36(sp)
    358a:	97d2                	add	a5,a5,s4
    358c:	d23e                	sw	a5,36(sp)
    358e:	b52d                	j	33b8 <_vfiprintf_r+0x6a>
    3590:	036787b3          	mul	a5,a5,s6
    3594:	4685                	li	a3,1
    3596:	842e                	mv	s0,a1
    3598:	97ba                	add	a5,a5,a4
    359a:	bfbd                	j	3518 <_vfiprintf_r+0x1ca>
    359c:	079d                	addi	a5,a5,7
    359e:	9be1                	andi	a5,a5,-8
    35a0:	07a1                	addi	a5,a5,8
    35a2:	b7d5                	j	3586 <_vfiprintf_r+0x238>
    35a4:	0078                	addi	a4,sp,12
    35a6:	00000697          	auipc	a3,0x0
    35aa:	d6668693          	addi	a3,a3,-666 # 330c <__sfputs_r>
    35ae:	8626                	mv	a2,s1
    35b0:	080c                	addi	a1,sp,16
    35b2:	854e                	mv	a0,s3
    35b4:	00000097          	auipc	ra,0x0
    35b8:	000000e7          	jalr	zero # 0 <_sinit>
    35bc:	57fd                	li	a5,-1
    35be:	8a2a                	mv	s4,a0
    35c0:	fcf514e3          	bne	a0,a5,3588 <_vfiprintf_r+0x23a>
    35c4:	00c4d783          	lhu	a5,12(s1)
    35c8:	0407f793          	andi	a5,a5,64
    35cc:	ea079ce3          	bnez	a5,3484 <_vfiprintf_r+0x136>
    35d0:	5512                	lw	a0,36(sp)
    35d2:	bd55                	j	3486 <_vfiprintf_r+0x138>
    35d4:	0078                	addi	a4,sp,12
    35d6:	00000697          	auipc	a3,0x0
    35da:	d3668693          	addi	a3,a3,-714 # 330c <__sfputs_r>
    35de:	8626                	mv	a2,s1
    35e0:	080c                	addi	a1,sp,16
    35e2:	854e                	mv	a0,s3
    35e4:	2a01                	jal	36f4 <_printf_i>
    35e6:	bfd9                	j	35bc <_vfiprintf_r+0x26e>

000035e8 <_printf_common>:
_printf_common():
    35e8:	7179                	addi	sp,sp,-48
    35ea:	ca56                	sw	s5,20(sp)
    35ec:	499c                	lw	a5,16(a1)
    35ee:	8aba                	mv	s5,a4
    35f0:	4598                	lw	a4,8(a1)
    35f2:	d422                	sw	s0,40(sp)
    35f4:	d226                	sw	s1,36(sp)
    35f6:	ce4e                	sw	s3,28(sp)
    35f8:	cc52                	sw	s4,24(sp)
    35fa:	d606                	sw	ra,44(sp)
    35fc:	d04a                	sw	s2,32(sp)
    35fe:	c85a                	sw	s6,16(sp)
    3600:	c65e                	sw	s7,12(sp)
    3602:	89aa                	mv	s3,a0
    3604:	842e                	mv	s0,a1
    3606:	84b2                	mv	s1,a2
    3608:	8a36                	mv	s4,a3
    360a:	00e7d363          	bge	a5,a4,3610 <_printf_common+0x28>
    360e:	87ba                	mv	a5,a4
    3610:	c09c                	sw	a5,0(s1)
    3612:	04344703          	lbu	a4,67(s0)
    3616:	c319                	beqz	a4,361c <_printf_common+0x34>
    3618:	0785                	addi	a5,a5,1
    361a:	c09c                	sw	a5,0(s1)
    361c:	401c                	lw	a5,0(s0)
    361e:	0207f793          	andi	a5,a5,32
    3622:	c781                	beqz	a5,362a <_printf_common+0x42>
    3624:	409c                	lw	a5,0(s1)
    3626:	0789                	addi	a5,a5,2
    3628:	c09c                	sw	a5,0(s1)
    362a:	00042903          	lw	s2,0(s0)
    362e:	00697913          	andi	s2,s2,6
    3632:	00091a63          	bnez	s2,3646 <_printf_common+0x5e>
    3636:	01940b13          	addi	s6,s0,25
    363a:	5bfd                	li	s7,-1
    363c:	445c                	lw	a5,12(s0)
    363e:	4098                	lw	a4,0(s1)
    3640:	8f99                	sub	a5,a5,a4
    3642:	04f94c63          	blt	s2,a5,369a <_printf_common+0xb2>
    3646:	401c                	lw	a5,0(s0)
    3648:	04344683          	lbu	a3,67(s0)
    364c:	0207f793          	andi	a5,a5,32
    3650:	00d036b3          	snez	a3,a3
    3654:	eba5                	bnez	a5,36c4 <_printf_common+0xdc>
    3656:	04340613          	addi	a2,s0,67
    365a:	85d2                	mv	a1,s4
    365c:	854e                	mv	a0,s3
    365e:	9a82                	jalr	s5
    3660:	57fd                	li	a5,-1
    3662:	04f50363          	beq	a0,a5,36a8 <_printf_common+0xc0>
    3666:	401c                	lw	a5,0(s0)
    3668:	4611                	li	a2,4
    366a:	4098                	lw	a4,0(s1)
    366c:	8b99                	andi	a5,a5,6
    366e:	4454                	lw	a3,12(s0)
    3670:	4481                	li	s1,0
    3672:	00c79763          	bne	a5,a2,3680 <_printf_common+0x98>
    3676:	40e684b3          	sub	s1,a3,a4
    367a:	0004d363          	bgez	s1,3680 <_printf_common+0x98>
    367e:	4481                	li	s1,0
    3680:	441c                	lw	a5,8(s0)
    3682:	4818                	lw	a4,16(s0)
    3684:	00f75463          	bge	a4,a5,368c <_printf_common+0xa4>
    3688:	8f99                	sub	a5,a5,a4
    368a:	94be                	add	s1,s1,a5
    368c:	4901                	li	s2,0
    368e:	0469                	addi	s0,s0,26
    3690:	5b7d                	li	s6,-1
    3692:	05249863          	bne	s1,s2,36e2 <_printf_common+0xfa>
    3696:	4501                	li	a0,0
    3698:	a809                	j	36aa <_printf_common+0xc2>
    369a:	4685                	li	a3,1
    369c:	865a                	mv	a2,s6
    369e:	85d2                	mv	a1,s4
    36a0:	854e                	mv	a0,s3
    36a2:	9a82                	jalr	s5
    36a4:	01751e63          	bne	a0,s7,36c0 <_printf_common+0xd8>
    36a8:	557d                	li	a0,-1
    36aa:	50b2                	lw	ra,44(sp)
    36ac:	5422                	lw	s0,40(sp)
    36ae:	5492                	lw	s1,36(sp)
    36b0:	5902                	lw	s2,32(sp)
    36b2:	49f2                	lw	s3,28(sp)
    36b4:	4a62                	lw	s4,24(sp)
    36b6:	4ad2                	lw	s5,20(sp)
    36b8:	4b42                	lw	s6,16(sp)
    36ba:	4bb2                	lw	s7,12(sp)
    36bc:	6145                	addi	sp,sp,48
    36be:	8082                	ret
    36c0:	0905                	addi	s2,s2,1
    36c2:	bfad                	j	363c <_printf_common+0x54>
    36c4:	00d40733          	add	a4,s0,a3
    36c8:	03000613          	li	a2,48
    36cc:	04c701a3          	sb	a2,67(a4)
    36d0:	04544703          	lbu	a4,69(s0)
    36d4:	00168793          	addi	a5,a3,1
    36d8:	97a2                	add	a5,a5,s0
    36da:	0689                	addi	a3,a3,2
    36dc:	04e781a3          	sb	a4,67(a5)
    36e0:	bf9d                	j	3656 <_printf_common+0x6e>
    36e2:	4685                	li	a3,1
    36e4:	8622                	mv	a2,s0
    36e6:	85d2                	mv	a1,s4
    36e8:	854e                	mv	a0,s3
    36ea:	9a82                	jalr	s5
    36ec:	fb650ee3          	beq	a0,s6,36a8 <_printf_common+0xc0>
    36f0:	0905                	addi	s2,s2,1
    36f2:	b745                	j	3692 <_printf_common+0xaa>

000036f4 <_printf_i>:
_printf_i():
    36f4:	7179                	addi	sp,sp,-48
    36f6:	d422                	sw	s0,40(sp)
    36f8:	d226                	sw	s1,36(sp)
    36fa:	d04a                	sw	s2,32(sp)
    36fc:	ce4e                	sw	s3,28(sp)
    36fe:	d606                	sw	ra,44(sp)
    3700:	cc52                	sw	s4,24(sp)
    3702:	ca56                	sw	s5,20(sp)
    3704:	c85a                	sw	s6,16(sp)
    3706:	89b6                	mv	s3,a3
    3708:	0185c683          	lbu	a3,24(a1)
    370c:	06900793          	li	a5,105
    3710:	8932                	mv	s2,a2
    3712:	84aa                	mv	s1,a0
    3714:	842e                	mv	s0,a1
    3716:	04358613          	addi	a2,a1,67
    371a:	02f68d63          	beq	a3,a5,3754 <_printf_i+0x60>
    371e:	06d7e263          	bltu	a5,a3,3782 <_printf_i+0x8e>
    3722:	05800793          	li	a5,88
    3726:	18f68763          	beq	a3,a5,38b4 <_printf_i+0x1c0>
    372a:	00d7ed63          	bltu	a5,a3,3744 <_printf_i+0x50>
    372e:	22068063          	beqz	a3,394e <_printf_i+0x25a>
    3732:	04300793          	li	a5,67
    3736:	0af68e63          	beq	a3,a5,37f2 <_printf_i+0xfe>
    373a:	04240a93          	addi	s5,s0,66
    373e:	04d40123          	sb	a3,66(s0)
    3742:	a0c9                	j	3804 <_printf_i+0x110>
    3744:	06300793          	li	a5,99
    3748:	0af68563          	beq	a3,a5,37f2 <_printf_i+0xfe>
    374c:	06400793          	li	a5,100
    3750:	fef695e3          	bne	a3,a5,373a <_printf_i+0x46>
    3754:	401c                	lw	a5,0(s0)
    3756:	4308                	lw	a0,0(a4)
    3758:	0807f693          	andi	a3,a5,128
    375c:	00450593          	addi	a1,a0,4
    3760:	c6c5                	beqz	a3,3808 <_printf_i+0x114>
    3762:	411c                	lw	a5,0(a0)
    3764:	c30c                	sw	a1,0(a4)
    3766:	0007d863          	bgez	a5,3776 <_printf_i+0x82>
    376a:	02d00713          	li	a4,45
    376e:	40f007b3          	neg	a5,a5
    3772:	04e401a3          	sb	a4,67(s0)
    3776:	00001697          	auipc	a3,0x1
    377a:	aa268693          	addi	a3,a3,-1374 # 4218 <__sf_fake_stdout+0x34>
    377e:	4729                	li	a4,10
    3780:	a86d                	j	383a <_printf_i+0x146>
    3782:	07000793          	li	a5,112
    3786:	16f68363          	beq	a3,a5,38ec <_printf_i+0x1f8>
    378a:	02d7e563          	bltu	a5,a3,37b4 <_printf_i+0xc0>
    378e:	06e00793          	li	a5,110
    3792:	18f68a63          	beq	a3,a5,3926 <_printf_i+0x232>
    3796:	06f00793          	li	a5,111
    379a:	faf690e3          	bne	a3,a5,373a <_printf_i+0x46>
    379e:	400c                	lw	a1,0(s0)
    37a0:	431c                	lw	a5,0(a4)
    37a2:	0805f813          	andi	a6,a1,128
    37a6:	00478513          	addi	a0,a5,4
    37aa:	06080763          	beqz	a6,3818 <_printf_i+0x124>
    37ae:	c308                	sw	a0,0(a4)
    37b0:	439c                	lw	a5,0(a5)
    37b2:	a88d                	j	3824 <_printf_i+0x130>
    37b4:	07500793          	li	a5,117
    37b8:	fef683e3          	beq	a3,a5,379e <_printf_i+0xaa>
    37bc:	07800793          	li	a5,120
    37c0:	12f68a63          	beq	a3,a5,38f4 <_printf_i+0x200>
    37c4:	07300793          	li	a5,115
    37c8:	f6f699e3          	bne	a3,a5,373a <_printf_i+0x46>
    37cc:	431c                	lw	a5,0(a4)
    37ce:	41d0                	lw	a2,4(a1)
    37d0:	4581                	li	a1,0
    37d2:	00478693          	addi	a3,a5,4
    37d6:	c314                	sw	a3,0(a4)
    37d8:	0007aa83          	lw	s5,0(a5)
    37dc:	8556                	mv	a0,s5
    37de:	2655                	jal	3b82 <memchr>
    37e0:	c501                	beqz	a0,37e8 <_printf_i+0xf4>
    37e2:	41550533          	sub	a0,a0,s5
    37e6:	c048                	sw	a0,4(s0)
    37e8:	405c                	lw	a5,4(s0)
    37ea:	c81c                	sw	a5,16(s0)
    37ec:	040401a3          	sb	zero,67(s0)
    37f0:	a871                	j	388c <_printf_i+0x198>
    37f2:	431c                	lw	a5,0(a4)
    37f4:	04240a93          	addi	s5,s0,66
    37f8:	00478693          	addi	a3,a5,4
    37fc:	439c                	lw	a5,0(a5)
    37fe:	c314                	sw	a3,0(a4)
    3800:	04f40123          	sb	a5,66(s0)
    3804:	4785                	li	a5,1
    3806:	b7d5                	j	37ea <_printf_i+0xf6>
    3808:	0407f693          	andi	a3,a5,64
    380c:	411c                	lw	a5,0(a0)
    380e:	c30c                	sw	a1,0(a4)
    3810:	dab9                	beqz	a3,3766 <_printf_i+0x72>
    3812:	07c2                	slli	a5,a5,0x10
    3814:	87c1                	srai	a5,a5,0x10
    3816:	bf81                	j	3766 <_printf_i+0x72>
    3818:	0405f593          	andi	a1,a1,64
    381c:	c308                	sw	a0,0(a4)
    381e:	d9c9                	beqz	a1,37b0 <_printf_i+0xbc>
    3820:	0007d783          	lhu	a5,0(a5)
    3824:	06f00713          	li	a4,111
    3828:	0ee68763          	beq	a3,a4,3916 <_printf_i+0x222>
    382c:	00001697          	auipc	a3,0x1
    3830:	9ec68693          	addi	a3,a3,-1556 # 4218 <__sf_fake_stdout+0x34>
    3834:	4729                	li	a4,10
    3836:	040401a3          	sb	zero,67(s0)
    383a:	404c                	lw	a1,4(s0)
    383c:	c40c                	sw	a1,8(s0)
    383e:	0005c563          	bltz	a1,3848 <_printf_i+0x154>
    3842:	4008                	lw	a0,0(s0)
    3844:	996d                	andi	a0,a0,-5
    3846:	c008                	sw	a0,0(s0)
    3848:	e399                	bnez	a5,384e <_printf_i+0x15a>
    384a:	8ab2                	mv	s5,a2
    384c:	cd91                	beqz	a1,3868 <_printf_i+0x174>
    384e:	8ab2                	mv	s5,a2
    3850:	02e7f5b3          	remu	a1,a5,a4
    3854:	1afd                	addi	s5,s5,-1
    3856:	95b6                	add	a1,a1,a3
    3858:	0005c583          	lbu	a1,0(a1)
    385c:	00ba8023          	sb	a1,0(s5)
    3860:	02e7d5b3          	divu	a1,a5,a4
    3864:	0ae7ff63          	bgeu	a5,a4,3922 <_printf_i+0x22e>
    3868:	47a1                	li	a5,8
    386a:	00f71e63          	bne	a4,a5,3886 <_printf_i+0x192>
    386e:	401c                	lw	a5,0(s0)
    3870:	8b85                	andi	a5,a5,1
    3872:	cb91                	beqz	a5,3886 <_printf_i+0x192>
    3874:	4058                	lw	a4,4(s0)
    3876:	481c                	lw	a5,16(s0)
    3878:	00e7c763          	blt	a5,a4,3886 <_printf_i+0x192>
    387c:	03000793          	li	a5,48
    3880:	fefa8fa3          	sb	a5,-1(s5)
    3884:	1afd                	addi	s5,s5,-1
    3886:	41560633          	sub	a2,a2,s5
    388a:	c810                	sw	a2,16(s0)
    388c:	874e                	mv	a4,s3
    388e:	86ca                	mv	a3,s2
    3890:	0070                	addi	a2,sp,12
    3892:	85a2                	mv	a1,s0
    3894:	8526                	mv	a0,s1
    3896:	3b89                	jal	35e8 <_printf_common>
    3898:	5a7d                	li	s4,-1
    389a:	0b451e63          	bne	a0,s4,3956 <_printf_i+0x262>
    389e:	557d                	li	a0,-1
    38a0:	50b2                	lw	ra,44(sp)
    38a2:	5422                	lw	s0,40(sp)
    38a4:	5492                	lw	s1,36(sp)
    38a6:	5902                	lw	s2,32(sp)
    38a8:	49f2                	lw	s3,28(sp)
    38aa:	4a62                	lw	s4,24(sp)
    38ac:	4ad2                	lw	s5,20(sp)
    38ae:	4b42                	lw	s6,16(sp)
    38b0:	6145                	addi	sp,sp,48
    38b2:	8082                	ret
    38b4:	04d582a3          	sb	a3,69(a1)
    38b8:	00001697          	auipc	a3,0x1
    38bc:	96068693          	addi	a3,a3,-1696 # 4218 <__sf_fake_stdout+0x34>
    38c0:	400c                	lw	a1,0(s0)
    38c2:	4308                	lw	a0,0(a4)
    38c4:	0805f813          	andi	a6,a1,128
    38c8:	411c                	lw	a5,0(a0)
    38ca:	0511                	addi	a0,a0,4
    38cc:	02080d63          	beqz	a6,3906 <_printf_i+0x212>
    38d0:	c308                	sw	a0,0(a4)
    38d2:	0015f713          	andi	a4,a1,1
    38d6:	c701                	beqz	a4,38de <_printf_i+0x1ea>
    38d8:	0205e593          	ori	a1,a1,32
    38dc:	c00c                	sw	a1,0(s0)
    38de:	4741                	li	a4,16
    38e0:	fbb9                	bnez	a5,3836 <_printf_i+0x142>
    38e2:	400c                	lw	a1,0(s0)
    38e4:	fdf5f593          	andi	a1,a1,-33
    38e8:	c00c                	sw	a1,0(s0)
    38ea:	b7b1                	j	3836 <_printf_i+0x142>
    38ec:	419c                	lw	a5,0(a1)
    38ee:	0207e793          	ori	a5,a5,32
    38f2:	c19c                	sw	a5,0(a1)
    38f4:	07800793          	li	a5,120
    38f8:	04f402a3          	sb	a5,69(s0)
    38fc:	00001697          	auipc	a3,0x1
    3900:	93068693          	addi	a3,a3,-1744 # 422c <__sf_fake_stdout+0x48>
    3904:	bf75                	j	38c0 <_printf_i+0x1cc>
    3906:	0405f813          	andi	a6,a1,64
    390a:	c308                	sw	a0,0(a4)
    390c:	fc0803e3          	beqz	a6,38d2 <_printf_i+0x1de>
    3910:	07c2                	slli	a5,a5,0x10
    3912:	83c1                	srli	a5,a5,0x10
    3914:	bf7d                	j	38d2 <_printf_i+0x1de>
    3916:	00001697          	auipc	a3,0x1
    391a:	90268693          	addi	a3,a3,-1790 # 4218 <__sf_fake_stdout+0x34>
    391e:	4721                	li	a4,8
    3920:	bf19                	j	3836 <_printf_i+0x142>
    3922:	87ae                	mv	a5,a1
    3924:	b735                	j	3850 <_printf_i+0x15c>
    3926:	4194                	lw	a3,0(a1)
    3928:	431c                	lw	a5,0(a4)
    392a:	49cc                	lw	a1,20(a1)
    392c:	0806f813          	andi	a6,a3,128
    3930:	00478513          	addi	a0,a5,4
    3934:	00080663          	beqz	a6,3940 <_printf_i+0x24c>
    3938:	c308                	sw	a0,0(a4)
    393a:	439c                	lw	a5,0(a5)
    393c:	c38c                	sw	a1,0(a5)
    393e:	a801                	j	394e <_printf_i+0x25a>
    3940:	c308                	sw	a0,0(a4)
    3942:	0406f693          	andi	a3,a3,64
    3946:	439c                	lw	a5,0(a5)
    3948:	daf5                	beqz	a3,393c <_printf_i+0x248>
    394a:	00b79023          	sh	a1,0(a5)
    394e:	00042823          	sw	zero,16(s0)
    3952:	8ab2                	mv	s5,a2
    3954:	bf25                	j	388c <_printf_i+0x198>
    3956:	4814                	lw	a3,16(s0)
    3958:	8656                	mv	a2,s5
    395a:	85ca                	mv	a1,s2
    395c:	8526                	mv	a0,s1
    395e:	9982                	jalr	s3
    3960:	f3450fe3          	beq	a0,s4,389e <_printf_i+0x1aa>
    3964:	401c                	lw	a5,0(s0)
    3966:	8b89                	andi	a5,a5,2
    3968:	e78d                	bnez	a5,3992 <_printf_i+0x29e>
    396a:	47b2                	lw	a5,12(sp)
    396c:	4448                	lw	a0,12(s0)
    396e:	f2f559e3          	bge	a0,a5,38a0 <_printf_i+0x1ac>
    3972:	853e                	mv	a0,a5
    3974:	b735                	j	38a0 <_printf_i+0x1ac>
    3976:	4685                	li	a3,1
    3978:	8656                	mv	a2,s5
    397a:	85ca                	mv	a1,s2
    397c:	8526                	mv	a0,s1
    397e:	9982                	jalr	s3
    3980:	f1650fe3          	beq	a0,s6,389e <_printf_i+0x1aa>
    3984:	0a05                	addi	s4,s4,1
    3986:	445c                	lw	a5,12(s0)
    3988:	4732                	lw	a4,12(sp)
    398a:	8f99                	sub	a5,a5,a4
    398c:	fefa45e3          	blt	s4,a5,3976 <_printf_i+0x282>
    3990:	bfe9                	j	396a <_printf_i+0x276>
    3992:	4a01                	li	s4,0
    3994:	01940a93          	addi	s5,s0,25
    3998:	5b7d                	li	s6,-1
    399a:	b7f5                	j	3986 <_printf_i+0x292>

0000399c <_sbrk_r>:
_sbrk_r():
    399c:	1141                	addi	sp,sp,-16
    399e:	c422                	sw	s0,8(sp)
    39a0:	842a                	mv	s0,a0
    39a2:	852e                	mv	a0,a1
    39a4:	1ffff797          	auipc	a5,0x1ffff
    39a8:	fa07a223          	sw	zero,-92(a5) # 20002948 <errno>
    39ac:	c606                	sw	ra,12(sp)
    39ae:	2c9d                	jal	3c24 <_sbrk>
    39b0:	57fd                	li	a5,-1
    39b2:	00f51963          	bne	a0,a5,39c4 <_sbrk_r+0x28>
    39b6:	1ffff797          	auipc	a5,0x1ffff
    39ba:	f9278793          	addi	a5,a5,-110 # 20002948 <errno>
    39be:	439c                	lw	a5,0(a5)
    39c0:	c391                	beqz	a5,39c4 <_sbrk_r+0x28>
    39c2:	c01c                	sw	a5,0(s0)
    39c4:	40b2                	lw	ra,12(sp)
    39c6:	4422                	lw	s0,8(sp)
    39c8:	0141                	addi	sp,sp,16
    39ca:	8082                	ret

000039cc <__sread>:
__sread():
    39cc:	1141                	addi	sp,sp,-16
    39ce:	c422                	sw	s0,8(sp)
    39d0:	842e                	mv	s0,a1
    39d2:	00e59583          	lh	a1,14(a1)
    39d6:	c606                	sw	ra,12(sp)
    39d8:	22e1                	jal	3ba0 <_read_r>
    39da:	00054963          	bltz	a0,39ec <__sread+0x20>
    39de:	487c                	lw	a5,84(s0)
    39e0:	97aa                	add	a5,a5,a0
    39e2:	c87c                	sw	a5,84(s0)
    39e4:	40b2                	lw	ra,12(sp)
    39e6:	4422                	lw	s0,8(sp)
    39e8:	0141                	addi	sp,sp,16
    39ea:	8082                	ret
    39ec:	00c45783          	lhu	a5,12(s0)
    39f0:	777d                	lui	a4,0xfffff
    39f2:	177d                	addi	a4,a4,-1
    39f4:	8ff9                	and	a5,a5,a4
    39f6:	00f41623          	sh	a5,12(s0)
    39fa:	b7ed                	j	39e4 <__sread+0x18>

000039fc <__swrite>:
__swrite():
    39fc:	00c5d783          	lhu	a5,12(a1)
    3a00:	1101                	addi	sp,sp,-32
    3a02:	cc22                	sw	s0,24(sp)
    3a04:	ca26                	sw	s1,20(sp)
    3a06:	c84a                	sw	s2,16(sp)
    3a08:	c64e                	sw	s3,12(sp)
    3a0a:	ce06                	sw	ra,28(sp)
    3a0c:	1007f793          	andi	a5,a5,256
    3a10:	84aa                	mv	s1,a0
    3a12:	842e                	mv	s0,a1
    3a14:	8932                	mv	s2,a2
    3a16:	89b6                	mv	s3,a3
    3a18:	c791                	beqz	a5,3a24 <__swrite+0x28>
    3a1a:	00e59583          	lh	a1,14(a1)
    3a1e:	4689                	li	a3,2
    3a20:	4601                	li	a2,0
    3a22:	2235                	jal	3b4e <_lseek_r>
    3a24:	00c45783          	lhu	a5,12(s0)
    3a28:	777d                	lui	a4,0xfffff
    3a2a:	177d                	addi	a4,a4,-1
    3a2c:	8ff9                	and	a5,a5,a4
    3a2e:	00f41623          	sh	a5,12(s0)
    3a32:	00e41583          	lh	a1,14(s0)
    3a36:	4462                	lw	s0,24(sp)
    3a38:	40f2                	lw	ra,28(sp)
    3a3a:	86ce                	mv	a3,s3
    3a3c:	864a                	mv	a2,s2
    3a3e:	49b2                	lw	s3,12(sp)
    3a40:	4942                	lw	s2,16(sp)
    3a42:	8526                	mv	a0,s1
    3a44:	44d2                	lw	s1,20(sp)
    3a46:	6105                	addi	sp,sp,32
    3a48:	a83d                	j	3a86 <_write_r>

00003a4a <__sseek>:
__sseek():
    3a4a:	1141                	addi	sp,sp,-16
    3a4c:	c422                	sw	s0,8(sp)
    3a4e:	842e                	mv	s0,a1
    3a50:	00e59583          	lh	a1,14(a1)
    3a54:	c606                	sw	ra,12(sp)
    3a56:	28e5                	jal	3b4e <_lseek_r>
    3a58:	57fd                	li	a5,-1
    3a5a:	00c45703          	lhu	a4,12(s0)
    3a5e:	00f51b63          	bne	a0,a5,3a74 <__sseek+0x2a>
    3a62:	77fd                	lui	a5,0xfffff
    3a64:	17fd                	addi	a5,a5,-1
    3a66:	8ff9                	and	a5,a5,a4
    3a68:	00f41623          	sh	a5,12(s0)
    3a6c:	40b2                	lw	ra,12(sp)
    3a6e:	4422                	lw	s0,8(sp)
    3a70:	0141                	addi	sp,sp,16
    3a72:	8082                	ret
    3a74:	6785                	lui	a5,0x1
    3a76:	8fd9                	or	a5,a5,a4
    3a78:	00f41623          	sh	a5,12(s0)
    3a7c:	c868                	sw	a0,84(s0)
    3a7e:	b7fd                	j	3a6c <__sseek+0x22>

00003a80 <__sclose>:
__sclose():
    3a80:	00e59583          	lh	a1,14(a1)
    3a84:	a825                	j	3abc <_close_r>

00003a86 <_write_r>:
_write_r():
    3a86:	1141                	addi	sp,sp,-16
    3a88:	c422                	sw	s0,8(sp)
    3a8a:	842a                	mv	s0,a0
    3a8c:	852e                	mv	a0,a1
    3a8e:	85b2                	mv	a1,a2
    3a90:	8636                	mv	a2,a3
    3a92:	1ffff797          	auipc	a5,0x1ffff
    3a96:	ea07ab23          	sw	zero,-330(a5) # 20002948 <errno>
    3a9a:	c606                	sw	ra,12(sp)
    3a9c:	f0efd0ef          	jal	ra,11aa <_write>
    3aa0:	57fd                	li	a5,-1
    3aa2:	00f51963          	bne	a0,a5,3ab4 <_write_r+0x2e>
    3aa6:	1ffff797          	auipc	a5,0x1ffff
    3aaa:	ea278793          	addi	a5,a5,-350 # 20002948 <errno>
    3aae:	439c                	lw	a5,0(a5)
    3ab0:	c391                	beqz	a5,3ab4 <_write_r+0x2e>
    3ab2:	c01c                	sw	a5,0(s0)
    3ab4:	40b2                	lw	ra,12(sp)
    3ab6:	4422                	lw	s0,8(sp)
    3ab8:	0141                	addi	sp,sp,16
    3aba:	8082                	ret

00003abc <_close_r>:
_close_r():
    3abc:	1141                	addi	sp,sp,-16
    3abe:	c422                	sw	s0,8(sp)
    3ac0:	842a                	mv	s0,a0
    3ac2:	852e                	mv	a0,a1
    3ac4:	1ffff797          	auipc	a5,0x1ffff
    3ac8:	e807a223          	sw	zero,-380(a5) # 20002948 <errno>
    3acc:	c606                	sw	ra,12(sp)
    3ace:	2219                	jal	3bd4 <_close>
    3ad0:	57fd                	li	a5,-1
    3ad2:	00f51963          	bne	a0,a5,3ae4 <_close_r+0x28>
    3ad6:	1ffff797          	auipc	a5,0x1ffff
    3ada:	e7278793          	addi	a5,a5,-398 # 20002948 <errno>
    3ade:	439c                	lw	a5,0(a5)
    3ae0:	c391                	beqz	a5,3ae4 <_close_r+0x28>
    3ae2:	c01c                	sw	a5,0(s0)
    3ae4:	40b2                	lw	ra,12(sp)
    3ae6:	4422                	lw	s0,8(sp)
    3ae8:	0141                	addi	sp,sp,16
    3aea:	8082                	ret

00003aec <_fstat_r>:
_fstat_r():
    3aec:	1141                	addi	sp,sp,-16
    3aee:	c422                	sw	s0,8(sp)
    3af0:	842a                	mv	s0,a0
    3af2:	852e                	mv	a0,a1
    3af4:	85b2                	mv	a1,a2
    3af6:	1ffff797          	auipc	a5,0x1ffff
    3afa:	e407a923          	sw	zero,-430(a5) # 20002948 <errno>
    3afe:	c606                	sw	ra,12(sp)
    3b00:	20d5                	jal	3be4 <_fstat>
    3b02:	57fd                	li	a5,-1
    3b04:	00f51963          	bne	a0,a5,3b16 <_fstat_r+0x2a>
    3b08:	1ffff797          	auipc	a5,0x1ffff
    3b0c:	e4078793          	addi	a5,a5,-448 # 20002948 <errno>
    3b10:	439c                	lw	a5,0(a5)
    3b12:	c391                	beqz	a5,3b16 <_fstat_r+0x2a>
    3b14:	c01c                	sw	a5,0(s0)
    3b16:	40b2                	lw	ra,12(sp)
    3b18:	4422                	lw	s0,8(sp)
    3b1a:	0141                	addi	sp,sp,16
    3b1c:	8082                	ret

00003b1e <_isatty_r>:
_isatty_r():
    3b1e:	1141                	addi	sp,sp,-16
    3b20:	c422                	sw	s0,8(sp)
    3b22:	842a                	mv	s0,a0
    3b24:	852e                	mv	a0,a1
    3b26:	1ffff797          	auipc	a5,0x1ffff
    3b2a:	e207a123          	sw	zero,-478(a5) # 20002948 <errno>
    3b2e:	c606                	sw	ra,12(sp)
    3b30:	20d1                	jal	3bf4 <_isatty>
    3b32:	57fd                	li	a5,-1
    3b34:	00f51963          	bne	a0,a5,3b46 <_isatty_r+0x28>
    3b38:	1ffff797          	auipc	a5,0x1ffff
    3b3c:	e1078793          	addi	a5,a5,-496 # 20002948 <errno>
    3b40:	439c                	lw	a5,0(a5)
    3b42:	c391                	beqz	a5,3b46 <_isatty_r+0x28>
    3b44:	c01c                	sw	a5,0(s0)
    3b46:	40b2                	lw	ra,12(sp)
    3b48:	4422                	lw	s0,8(sp)
    3b4a:	0141                	addi	sp,sp,16
    3b4c:	8082                	ret

00003b4e <_lseek_r>:
_lseek_r():
    3b4e:	1141                	addi	sp,sp,-16
    3b50:	c422                	sw	s0,8(sp)
    3b52:	842a                	mv	s0,a0
    3b54:	852e                	mv	a0,a1
    3b56:	85b2                	mv	a1,a2
    3b58:	8636                	mv	a2,a3
    3b5a:	1ffff797          	auipc	a5,0x1ffff
    3b5e:	de07a723          	sw	zero,-530(a5) # 20002948 <errno>
    3b62:	c606                	sw	ra,12(sp)
    3b64:	2045                	jal	3c04 <_lseek>
    3b66:	57fd                	li	a5,-1
    3b68:	00f51963          	bne	a0,a5,3b7a <_lseek_r+0x2c>
    3b6c:	1ffff797          	auipc	a5,0x1ffff
    3b70:	ddc78793          	addi	a5,a5,-548 # 20002948 <errno>
    3b74:	439c                	lw	a5,0(a5)
    3b76:	c391                	beqz	a5,3b7a <_lseek_r+0x2c>
    3b78:	c01c                	sw	a5,0(s0)
    3b7a:	40b2                	lw	ra,12(sp)
    3b7c:	4422                	lw	s0,8(sp)
    3b7e:	0141                	addi	sp,sp,16
    3b80:	8082                	ret

00003b82 <memchr>:
memchr():
    3b82:	0ff5f593          	andi	a1,a1,255
    3b86:	962a                	add	a2,a2,a0
    3b88:	00c51463          	bne	a0,a2,3b90 <memchr+0xe>
    3b8c:	4501                	li	a0,0
    3b8e:	8082                	ret
    3b90:	00054783          	lbu	a5,0(a0)
    3b94:	feb78de3          	beq	a5,a1,3b8e <memchr+0xc>
    3b98:	0505                	addi	a0,a0,1
    3b9a:	b7fd                	j	3b88 <memchr+0x6>

00003b9c <__malloc_lock>:
__malloc_lock():
    3b9c:	8082                	ret

00003b9e <__malloc_unlock>:
__malloc_unlock():
    3b9e:	8082                	ret

00003ba0 <_read_r>:
_read_r():
    3ba0:	1141                	addi	sp,sp,-16
    3ba2:	c422                	sw	s0,8(sp)
    3ba4:	842a                	mv	s0,a0
    3ba6:	852e                	mv	a0,a1
    3ba8:	85b2                	mv	a1,a2
    3baa:	8636                	mv	a2,a3
    3bac:	1ffff797          	auipc	a5,0x1ffff
    3bb0:	d807ae23          	sw	zero,-612(a5) # 20002948 <errno>
    3bb4:	c606                	sw	ra,12(sp)
    3bb6:	28b9                	jal	3c14 <_read>
    3bb8:	57fd                	li	a5,-1
    3bba:	00f51963          	bne	a0,a5,3bcc <_read_r+0x2c>
    3bbe:	1ffff797          	auipc	a5,0x1ffff
    3bc2:	d8a78793          	addi	a5,a5,-630 # 20002948 <errno>
    3bc6:	439c                	lw	a5,0(a5)
    3bc8:	c391                	beqz	a5,3bcc <_read_r+0x2c>
    3bca:	c01c                	sw	a5,0(s0)
    3bcc:	40b2                	lw	ra,12(sp)
    3bce:	4422                	lw	s0,8(sp)
    3bd0:	0141                	addi	sp,sp,16
    3bd2:	8082                	ret

00003bd4 <_close>:
_close():
    3bd4:	05800793          	li	a5,88
    3bd8:	1ffff717          	auipc	a4,0x1ffff
    3bdc:	d6f72823          	sw	a5,-656(a4) # 20002948 <errno>
    3be0:	557d                	li	a0,-1
    3be2:	8082                	ret

00003be4 <_fstat>:
_fstat():
    3be4:	05800793          	li	a5,88
    3be8:	1ffff717          	auipc	a4,0x1ffff
    3bec:	d6f72023          	sw	a5,-672(a4) # 20002948 <errno>
    3bf0:	557d                	li	a0,-1
    3bf2:	8082                	ret

00003bf4 <_isatty>:
_isatty():
    3bf4:	05800793          	li	a5,88
    3bf8:	1ffff717          	auipc	a4,0x1ffff
    3bfc:	d4f72823          	sw	a5,-688(a4) # 20002948 <errno>
    3c00:	4501                	li	a0,0
    3c02:	8082                	ret

00003c04 <_lseek>:
_lseek():
    3c04:	05800793          	li	a5,88
    3c08:	1ffff717          	auipc	a4,0x1ffff
    3c0c:	d4f72023          	sw	a5,-704(a4) # 20002948 <errno>
    3c10:	557d                	li	a0,-1
    3c12:	8082                	ret

00003c14 <_read>:
_read():
    3c14:	05800793          	li	a5,88
    3c18:	1ffff717          	auipc	a4,0x1ffff
    3c1c:	d2f72823          	sw	a5,-720(a4) # 20002948 <errno>
    3c20:	557d                	li	a0,-1
    3c22:	8082                	ret

00003c24 <_sbrk>:
_sbrk():
    3c24:	1fffe797          	auipc	a5,0x1fffe
    3c28:	0dc78793          	addi	a5,a5,220 # 20001d00 <heap_end.1518>
    3c2c:	439c                	lw	a5,0(a5)
    3c2e:	cb81                	beqz	a5,3c3e <_sbrk+0x1a>
    3c30:	953e                	add	a0,a0,a5
    3c32:	1fffe717          	auipc	a4,0x1fffe
    3c36:	0ca72723          	sw	a0,206(a4) # 20001d00 <heap_end.1518>
    3c3a:	853e                	mv	a0,a5
    3c3c:	8082                	ret
    3c3e:	1ffff797          	auipc	a5,0x1ffff
    3c42:	d0e78793          	addi	a5,a5,-754 # 2000294c <_ebss>
    3c46:	953e                	add	a0,a0,a5
    3c48:	1fffe717          	auipc	a4,0x1fffe
    3c4c:	0aa72c23          	sw	a0,184(a4) # 20001d00 <heap_end.1518>
    3c50:	853e                	mv	a0,a5
    3c52:	8082                	ret
    3c54:	8000                	0x8000
    3c56:	0202                	c.slli64	tp
    3c58:	001f 0000 2020      	0x20200000001f
    3c5e:	2020                	fld	fs0,64(s0)
    3c60:	2020                	fld	fs0,64(s0)
    3c62:	2020                	fld	fs0,64(s0)
    3c64:	2020                	fld	fs0,64(s0)
    3c66:	2020                	fld	fs0,64(s0)
    3c68:	2020                	fld	fs0,64(s0)
    3c6a:	2020                	fld	fs0,64(s0)
    3c6c:	2020                	fld	fs0,64(s0)
    3c6e:	2020                	fld	fs0,64(s0)
    3c70:	2020                	fld	fs0,64(s0)
    3c72:	2020                	fld	fs0,64(s0)
    3c74:	2020                	fld	fs0,64(s0)
    3c76:	2020                	fld	fs0,64(s0)

00003c78 <BootBlock>:
    3c78:	3ceb 5590 3246 5520 3246 0020 0102 0001     .<.UF2 UF2 .....
    3c88:	4002 0000 f800 0102 0001 0001 0000 0000     .@..............
    3c98:	0109 0001 0080 4229 4200 4c00 2d47 6c50     ......)B.B.LG-Pl
    3ca8:	6d75 0000 0000 4146 3154 2036 2020 0000     um....FAT16   ..

00003cb8 <indexFile>:
    3cb8:	213c 6f64 7463 7079 2065 7468 6c6d 0a3e     <!doctype html>.
    3cc8:	683c 6d74 3e6c 623c 646f 3e79 733c 7263     <html><body><scr
    3cd8:	7069 3e74 6c0a 636f 7461 6f69 2e6e 6572     ipt>.location.re
    3ce8:	6c70 6361 2865 6822 7474 7370 2f3a 772f     place("https://w
    3cf8:	7777 6c2e 5f67 7473 6475 6f69 632e 6d6f     ww.lg_studio.com
    3d08:	222f 3b29 3c0a 732f 7263 7069 3e74 2f3c     /");.</script></
    3d18:	6f62 7964 3c3e 682f 6d74 3e6c 000a 0000     body></html>....

00003d28 <infoUf2File>:
    3d28:	6c50 6d75 5520 3246 4220 6f6f 6c74 616f     Plum UF2 Bootloa
    3d38:	6564 2072 2e30 2e30 0d31 4d0a 646f 6c65     der 0.0.1..Model
    3d48:	203a 474c 5320 7574 6964 206f 6c50 6d75     : LG Studio Plum
    3d58:	4220 6f6f 6c74 616f 6564 0d72 420a 616f      Bootloader..Boa
    3d68:	6472 492d 3a44 5020 756c 206d 6f42 746f     rd-ID: Plum Boot
    3d78:	6f6c 6461 7265 6620 726f 4c20 2047 7453     loader for LG St
    3d88:	6475 6f69 0a0d 6144 6574 203a 754a 206e     udio..Date: Jun 
    3d98:	3831 3220 3230 0d33 000a 0000               18 2023.....

00003da4 <msc_flash_descriptor>:
    3da4:	0112 0200 0000 4000 239a 005d 0200 0201     .......@.#].....
    3db4:	0103 0209 0020 0101 8000 0932 0004 0200     .... .....2.....
    3dc4:	0608 0250 0507 0202 0040 0700 8105 4002     ..P.....@......@
    3dd4:	0000 0304 0409 0314 0043 0068 0065 0072     ........C.h.e.r.
    3de4:	0072 0079 0055 0053 0042 0326 0043 0068     r.y.U.S.B.&.C.h.
    3df4:	0065 0072 0072 0079 0055 0053 0042 0020     e.r.r.y.U.S.B. .
    3e04:	004d 0053 0043 0020 0044 0045 004d 004f     M.S.C. .D.E.M.O.
    3e14:	0316 0032 0030 0032 0032 0031 0032 0033     ..2.0.2.2.1.2.3.
    3e24:	0034 0035 0036 0000 5b1b 3133 5b6d 2f45     4.5.6....[31m[E/
    3e34:	5355 5d42 0020 0000 7045 6120 6464 2072     USB] ...Ep addr 
    3e44:	6425 6f20 6576 6672 6f6c 0d77 000a 0000     %d overflow.....
    3e54:	5b1b 6d30 0000 0000 d8f0 ffff d906 ffff     .[0m............
    3e64:	d898 ffff d906 ffff d898 ffff d900 ffff     ................
    3e74:	d90c ffff d898 ffff d9f6 ffff da02 ffff     ................
    3e84:	6552 7571 7365 2074 7562 6666 7265 7420     Request buffer t
    3e94:	6f6f 7320 616d 6c6c 000d 0000 6553 7574     oo small....Setu
    3ea4:	3a70 6220 526d 7165 6575 7473 7954 6570     p: bmRequestType
    3eb4:	3020 2578 3230 2c78 6220 6552 7571 7365      0x%02x, bReques
    3ec4:	2074 7830 3025 7832 202c 5677 6c61 6575     t 0x%02x, wValue
    3ed4:	3020 2578 3430 2c78 7720 6e49 6564 2078      0x%04x, wIndex 
    3ee4:	7830 3025 7834 202c 4c77 6e65 7467 2068     0x%04x, wLength 
    3ef4:	7830 3025 7834 0a0d 0000 0000 5b1b 3233     0x%04x.......[32
    3f04:	5b6d 2f49 5355 5d42 0020 0000 704f 6e65     m[I/USB] ...Open
    3f14:	6520 3a70 7830 3025 7832 7420 7079 3a65      ep:0x%02x type:
    3f24:	7525 6d20 7370 253a 0d75 000a 6572 6461     %u mps:%u...read
    3f34:	4d20 2053 534f 3220 302e 6420 7365 7263      MS OS 2.0 descr
    3f44:	7069 6f74 2072 7473 6972 676e 000d 0000     iptor string....
    3f54:	6572 6461 4220 534f 6420 7365 7263 7069     read BOS descrip
    3f64:	6f74 2072 7473 6972 676e 000d 6572 6461     tor string..read
    3f74:	6820 6469 7220 7065 726f 2074 6564 6373      hid report desc
    3f84:	6972 7470 726f 000d 6c43 736f 2065 7065     riptor..Close ep
    3f94:	303a 2578 3230 2078 7974 6570 253a 0d75     :0x%02x type:%u.
    3fa4:	000a 0000 7065 253a 3230 2078 6c63 6165     ....ep:%02x clea
    3fb4:	2072 6168 746c 0a0d 0000 0000 7065 253a     r halt......ep:%
    3fc4:	3230 2078 6573 2074 6168 746c 0a0d 0000     02x set halt....
    3fd4:	5b1b 3333 5b6d 2f57 5355 5d42 0020 0000     .[33m[W/USB] ...
    3fe4:	6749 6f6e 6572 4420 4451 6920 206e 7366     Ignore DQD in fs
    3ff4:	000d 0000 7473 6e61 6164 6472 7220 7165     ....standard req
    4004:	6575 7473 6520 7272 726f 000d 6c63 7361     uest error..clas
    4014:	2073 6572 7571 7365 2074 7265 6f72 0d72     s request error.
    4024:	0000 0000 6567 2074 6f43 706d 7461 4920     ....get Compat I
    4034:	0d44 0000 6567 2074 6f43 706d 7461 6920     D...get Compat i
    4044:	2064 7270 706f 7265 6974 7365 000d 0000     d properties....
    4054:	6e75 6e6b 776f 206e 6576 646e 726f 6320     unknown vendor c
    4064:	646f 0d65 0000 0000 4547 2054 534d 4f20     ode.....GET MS O
    4074:	2053 2e32 2030 6544 6373 6972 7470 726f     S 2.0 Descriptor
    4084:	000d 0000 6576 646e 726f 7220 7165 6575     ....vendor reque
    4094:	7473 6520 7272 726f 000d 0000 6564 6373     st error....desc
    40a4:	6972 7470 726f 3c20 7974 6570 253a 2c78     riptor <type:%x,
    40b4:	6e69 6564 3a78 7825 203e 6f6e 2074 6f66     index:%x> not fo
    40c4:	6e75 2164 0a0d 0000 6973 657a 2120 203d     und!....size != 
    40d4:	6973 657a 666f 6328 7762 0d29 0000 0000     sizeof(cbw).....
    40e4:	424c 2041 756f 2074 666f 7220 6e61 6567     LBA out of range
    40f4:	000d 0000 6373 6973 625f 6b6c 6c5f 6e65     ....scsi_blk_len
    4104:	6420 656f 2073 6f6e 2074 616d 6374 2068      does not match 
    4114:	6977 6874 6420 6144 6174 654c 676e 6874     with dDataLength
    4124:	000d 0000 6e75 7573 7070 726f 6574 2064     ....unsupported 
    4134:	6d63 3a64 7830 3025 7832 0a0d 0000 0000     cmd:0x%02x......
    4144:	6f43 6d6d 6e61 3a64 7830 3025 7832 6420     Command:0x%02x d
    4154:	6365 646f 2065 7265 0d72 000a 6e55 6168     ecode err...Unha
    4164:	646e 656c 2064 534d 2043 6c43 7361 2073     ndled MSC Class 
    4174:	5262 7165 6575 7473 3020 2578 3230 0d78     bRequest 0x%02x.
    4184:	000a 0000 736d 2063 6c62 636f 206b 7562     ....msc block bu
    4194:	6666 7265 6f20 6576 6672 6f6c 0d77 0000     ffer overflow...

000041a4 <__sf_fake_stderr>:
	...

000041c4 <__sf_fake_stdin>:
	...

000041e4 <__sf_fake_stdout>:
	...
    4204:	2d23 2b30 0020 0000 6c68 004c 6665 4567     #-0+ ...hlL.efgE
    4214:	4746 0000 3130 3332 3534 3736 3938 4241     FG..0123456789AB
    4224:	4443 4645 0000 0000 3130 3332 3534 3736     CDEF....01234567
    4234:	3938 6261 6463 6665 0000 0000               89abcdef....

00004240 <_global_impure_ptr>:
    4240:	0b0c 2000                                   ... 
